MPLINK 4.40, Linker
Linker Map File - Created Mon Mar 14 10:34:32 2016

                                 Section Info
                  Section       Type    Address   Location Size(Bytes)
                ---------  ---------  ---------  ---------  ---------
               _entry_scn       code   0x000000    program   0x000006
           .code___init.o       code   0x000006    program   0x000002
                      isr       code   0x000008    program   0x000284
                   .cinit    romdata   0x00028c    program   0x00001a
        .code_functions.o       code   0x0002a6    program   0x002b70
             .code_main.o       code   0x002e16    program   0x001d98
          .code_display.o       code   0x004bae    program   0x000c3c
            .code_setup.o       code   0x0057ea    program   0x000a1c
          .code_dac8568.o       code   0x006206    program   0x0007ea
          .code_Tsensor.o       code   0x0069f0    program   0x0007a6
           .code_analog.o       code   0x007196    program   0x0006d6
                     PROG       code   0x00786c    program   0x0005c0
          .code_ads8332.o       code   0x007e2c    program   0x000598
            .code_maths.o       code   0x0083c4    program   0x00058a
          .code_cbuffer.o       code   0x00894e    program   0x000342
              .code_spi.o       code   0x008c90    program   0x000338
            .code_frame.o       code   0x008fc8    program   0x0002d6
          .code_uartbuf.o       code   0x00929e    program   0x000296
        .code_wr_eeprom.o       code   0x009534    program   0x000284
            .code_utils.o       code   0x0097b8    program   0x000110
                   STDLIB       code   0x0098c8    program   0x0000ea
                   STRING       code   0x0099b2    program   0x0000ac
               _cinit_scn       code   0x009a5e    program   0x00009e
          .code_fxm3232.o       code   0x009afc    program   0x000070
         .code_spi_open.o       code   0x009b6c    program   0x00006a
         .code_fxd3232u.o       code   0x009bd6    program   0x000048
           .code_t3open.o       code   0x009c1e    program   0x000042
           .code_t1open.o       code   0x009c60    program   0x000042
            .code_uread.o       code   0x009ca2    program   0x00003e
           .code_t1read.o       code   0x009ce0    program   0x00003e
         .code_spi_writ.o       code   0x009d1e    program   0x00003c
          .code_t1write.o       code   0x009d5a    program   0x000038
             .stringtable    romdata   0x009d92    program   0x000036
           .code_t2open.o       code   0x009dc8    program   0x000036
             D10KTCYXCODE       code   0x009dfe    program   0x00002e
           .code_uwrite.o       code   0x009e2c    program   0x00002e
         .code_spi_read.o       code   0x009e5a    program   0x00002e
         .code_fxd1616u.o       code   0x009e88    program   0x00002c
                    .code       code   0x009eb4    program   0x000020
             _startup_scn       code   0x009ed4    program   0x00001c
             D100TCYXCODE       code   0x009ef0    program   0x00001c
         .code_fxd0808u.o       code   0x009f0c    program   0x00001c
              D10TCYXCODE       code   0x009f28    program   0x000016
          .code_pow2x16.o       code   0x009f3e    program   0x000016
       .romdata_pow2x16.o    romdata   0x009f54    program   0x000000
         .romdata_c018i.o    romdata   0x009f54    program   0x000000
        .romdata___init.o    romdata   0x009f54    program   0x000000
        .romdata_uwrite.o    romdata   0x009f54    program   0x000000
      .romdata_fxd0808u.o    romdata   0x009f54    program   0x000000
        .idata_uwrite.o_i    romdata   0x009f54    program   0x000000
       .romdata_t1write.o    romdata   0x009f54    program   0x000000
      .romdata_spi_writ.o    romdata   0x009f54    program   0x000000
      .romdata_fxd1616u.o    romdata   0x009f54    program   0x000000
         .romdata_udefs.o    romdata   0x009f54    program   0x000000
      .romdata_fxd3232u.o    romdata   0x009f54    program   0x000000
         .idata_udefs.o_i    romdata   0x009f54    program   0x000000
       .romdata_fxm3232.o    romdata   0x009f54    program   0x000000
         .romdata_uread.o    romdata   0x009f54    program   0x000000
      .romdata_spi_open.o    romdata   0x009f54    program   0x000000
         .idata_uread.o_i    romdata   0x009f54    program   0x000000
        .romdata_t1open.o    romdata   0x009f54    program   0x000000
        .romdata_t1read.o    romdata   0x009f54    program   0x000000
        .romdata_t2open.o    romdata   0x009f54    program   0x000000
      .romdata_spi_read.o    romdata   0x009f54    program   0x000000
        .romdata_t3open.o    romdata   0x009f54    program   0x000000
       .romdata_cbuffer.o    romdata   0x009f54    program   0x000000
           .romdata_spi.o    romdata   0x009f54    program   0x000000
       .idata_uartbuf.o_i    romdata   0x009f54    program   0x000002
       .romdata_uartbuf.o    romdata   0x009f54    program   0x000000
        .romdata_analog.o    romdata   0x009f54    program   0x000000
     .romdata_wr_eeprom.o    romdata   0x009f54    program   0x000000
         .romdata_setup.o    romdata   0x009f54    program   0x000000
         .romdata_frame.o    romdata   0x009f54    program   0x000000
       .romdata_display.o    romdata   0x009f54    program   0x000000
     .idata_wr_eeprom.o_i    romdata   0x009f54    program   0x000000
           .romdata_isr.o    romdata   0x009f54    program   0x000000
       .romdata_ads8332.o    romdata   0x009f54    program   0x000000
       .romdata_dac8568.o    romdata   0x009f54    program   0x000000
          .romdata_main.o    romdata   0x009f54    program   0x000000
     .romdata_functions.o    romdata   0x009f54    program   0x000000
       .romdata_Tsensor.o    romdata   0x009f54    program   0x000000
         .idata_utils.o_i    romdata   0x009f54    program   0x000000
         .romdata_utils.o    romdata   0x009f54    program   0x000000
         .romdata_maths.o    romdata   0x009f54    program   0x000000
          .idata_main.o_i    romdata   0x009f56    program   0x000007
         .idata_setup.o_i    romdata   0x009f56    program   0x000000
       .idata_t1write.o_i    romdata   0x009f56    program   0x000000
        .idata_t1read.o_i    romdata   0x009f56    program   0x000000
      .idata_spi_read.o_i    romdata   0x009f56    program   0x000000
      .idata_spi_writ.o_i    romdata   0x009f56    program   0x000000
        .idata_t3open.o_i    romdata   0x009f56    program   0x000000
        .idata_t2open.o_i    romdata   0x009f56    program   0x000000
           .idata_spi.o_i    romdata   0x009f56    program   0x000000
        .idata_t1open.o_i    romdata   0x009f56    program   0x000000
      .idata_spi_open.o_i    romdata   0x009f56    program   0x000000
         .idata_maths.o_i    romdata   0x009f56    program   0x000000
       .idata_pow2x16.o_i    romdata   0x009f56    program   0x000000
        .idata_analog.o_i    romdata   0x009f5d    program   0x000000
        .idata___init.o_i    romdata   0x009f5d    program   0x000000
       .idata_ads8332.o_i    romdata   0x009f5d    program   0x000000
       .idata_dac8568.o_i    romdata   0x009f5d    program   0x000000
         .idata_c018i.o_i    romdata   0x009f5d    program   0x000000
      .idata_fxd0808u.o_i    romdata   0x009f5d    program   0x000000
      .idata_fxd1616u.o_i    romdata   0x009f5d    program   0x000000
     .idata_functions.o_i    romdata   0x009f5d    program   0x000000
      .idata_fxd3232u.o_i    romdata   0x009f5d    program   0x000000
       .idata_display.o_i    romdata   0x009f5d    program   0x000000
       .idata_Tsensor.o_i    romdata   0x009f5d    program   0x000000
       .idata_cbuffer.o_i    romdata   0x009f5d    program   0x000000
         .idata_frame.o_i    romdata   0x009f5d    program   0x000000
           .idata_isr.o_i    romdata   0x009f5d    program   0x000000
       .idata_fxm3232.o_i    romdata   0x009f5d    program   0x000000
            .code_c018i.o       code   0x009f5e    program   0x000000
              .code_isr.o       code   0x009f5e    program   0x000000
            .code_udefs.o       code   0x009f5e    program   0x000000
    .config_300001_main.o    romdata   0x300001    program   0x000001
    .config_300002_main.o    romdata   0x300002    program   0x000001
    .config_300003_main.o    romdata   0x300003    program   0x000001
    .config_300005_main.o    romdata   0x300005    program   0x000001
    .config_300006_main.o    romdata   0x300006    program   0x000001
                MATH_DATA      udata   0x000000       data   0x000014
                 .tmpdata      udata   0x000014       data   0x000012
                  isr_tmp      udata   0x000026       data   0x000006
                DELAYDAT2      udata   0x00002c       data   0x000001
                DELAYDAT1      udata   0x00002d       data   0x000001
            .udata_main.o      udata   0x000060       data   0x00000c
           .udata_c018i.o      udata   0x00006c       data   0x00000a
            .idata_main.o      idata   0x000076       data   0x000007
           .udata_udefs.o      udata   0x00007d       data   0x000001
             .udata_isr.o      udata   0x00007e       data   0x000001
        .idata_fxd1616u.o      idata   0x00007f       data   0x000000
        .udata_fxd1616u.o      udata   0x00007f       data   0x000000
          .idata_uwrite.o      idata   0x00007f       data   0x000000
        .udata_fxd3232u.o      udata   0x00007f       data   0x000000
        .idata_fxd0808u.o      idata   0x00007f       data   0x000000
        .idata_fxd3232u.o      idata   0x00007f       data   0x000000
         .udata_fxm3232.o      udata   0x00007f       data   0x000000
         .idata_fxm3232.o      idata   0x00007f       data   0x000000
        .udata_spi_open.o      udata   0x00007f       data   0x000000
        .idata_spi_open.o      idata   0x00007f       data   0x000000
        .udata_fxd0808u.o      udata   0x00007f       data   0x000000
          .udata___init.o      udata   0x00007f       data   0x000000
          .udata_t1open.o      udata   0x00007f       data   0x000000
          .idata_t1open.o      idata   0x00007f       data   0x000000
          .udata_t2open.o      udata   0x00007f       data   0x000000
          .idata_t2open.o      idata   0x00007f       data   0x000000
          .udata_t3open.o      udata   0x00007f       data   0x000000
          .idata_t3open.o      idata   0x00007f       data   0x000000
        .udata_spi_read.o      udata   0x00007f       data   0x000000
        .idata_spi_read.o      idata   0x00007f       data   0x000000
          .udata_t1read.o      udata   0x00007f       data   0x000000
          .idata_t1read.o      idata   0x00007f       data   0x000000
           .udata_uread.o      udata   0x00007f       data   0x000000
           .idata_uread.o      idata   0x00007f       data   0x000000
           .idata_udefs.o      idata   0x00007f       data   0x000000
        .udata_spi_writ.o      udata   0x00007f       data   0x000000
        .idata_spi_writ.o      idata   0x00007f       data   0x000000
         .udata_t1write.o      udata   0x00007f       data   0x000000
         .idata_t1write.o      idata   0x00007f       data   0x000000
          .udata_uwrite.o      udata   0x00007f       data   0x000000
           .idata_c018i.o      idata   0x00007f       data   0x000000
         .udata_display.o      udata   0x00007f       data   0x000000
         .idata_display.o      idata   0x00007f       data   0x000000
             .udata_spi.o      udata   0x00007f       data   0x000000
             .idata_spi.o      idata   0x00007f       data   0x000000
         .udata_Tsensor.o      udata   0x00007f       data   0x000000
         .idata_Tsensor.o      idata   0x00007f       data   0x000000
       .udata_wr_eeprom.o      udata   0x00007f       data   0x000000
       .idata_wr_eeprom.o      idata   0x00007f       data   0x000000
           .udata_maths.o      udata   0x00007f       data   0x000000
           .idata_maths.o      idata   0x00007f       data   0x000000
         .udata_dac8568.o      udata   0x00007f       data   0x000000
         .idata_dac8568.o      idata   0x00007f       data   0x000000
         .idata_ads8332.o      idata   0x00007f       data   0x000000
          .udata_analog.o      udata   0x00007f       data   0x000000
          .idata___init.o      idata   0x00007f       data   0x000000
           .idata_utils.o      idata   0x00007f       data   0x000000
           .udata_utils.o      udata   0x00007f       data   0x000000
       .idata_functions.o      idata   0x00007f       data   0x000000
         .udata_pow2x16.o      udata   0x00007f       data   0x000000
             .idata_isr.o      idata   0x00007f       data   0x000000
           .idata_frame.o      idata   0x00007f       data   0x000000
           .udata_frame.o      udata   0x00007f       data   0x000000
         .idata_pow2x16.o      idata   0x00007f       data   0x000000
         .udata_uartbuf.o      udata   0x00007f       data   0x000000
         .idata_cbuffer.o      idata   0x00007f       data   0x000000
         .udata_cbuffer.o      udata   0x00007f       data   0x000000
           .idata_setup.o      idata   0x00007f       data   0x000000
           .udata_setup.o      udata   0x00007f       data   0x000000
          .idata_analog.o      idata   0x00007f       data   0x000000
              large_udata      udata   0x000100       data   0x0006a2
                   .stack      udata   0x000d00       data   0x000200
       .udata_functions.o      udata   0x000f00       data   0x00004a
         .udata_ads8332.o      udata   0x000f4a       data   0x000014
         .idata_uartbuf.o      idata   0x000f5e       data   0x000002
            SFR_UNBANKED0      udata   0x000f77       data   0x000089



                              Program Memory Usage 
                               Start         End      
                           ---------   ---------      
                            0x000000    0x009f5c      
                            0x300001    0x300003      
                            0x300005    0x300006      
            40802 out of 66584 program addresses used, program memory utilization is 61%



                              Symbols - Sorted by Name
                     Name    Address   Location    Storage File                     
                ---------  ---------  ---------  --------- ---------                
                   D0808S   0x007b5a    program     static C:\MCC18\v3_39\src\traditional\math\fxd0808s.asm
                D0808SNEG   0x007b68    program     static C:\MCC18\v3_39\src\traditional\math\fxd0808s.asm
                 D0808SOK   0x007b64    program     static C:\MCC18\v3_39\src\traditional\math\fxd0808s.asm
                  D0808SX   0x007b6e    program     static C:\MCC18\v3_39\src\traditional\math\fxd0808s.asm
                   D100_1   0x009efe    program     static C:\MCC18\v3_39\src\traditional\delays\d100tcyx.asm
                    D100x   0x009efc    program     static C:\MCC18\v3_39\src\traditional\delays\d100tcyx.asm
                   D10K_1   0x009e0a    program     static C:\MCC18\v3_39\src\traditional\delays\d10ktcyx.asm
                    D10Kl   0x009e16    program     static C:\MCC18\v3_39\src\traditional\delays\d10ktcyx.asm
                    D10Kx   0x009e08    program     static C:\MCC18\v3_39\src\traditional\delays\d10ktcyx.asm
                    D10_1   0x009f38    program     static C:\MCC18\v3_39\src\traditional\delays\d10tcyx.asm
                     D10x   0x009f30    program     static C:\MCC18\v3_39\src\traditional\delays\d10tcyx.asm
                   D1616S   0x007b9a    program     static C:\MCC18\v3_39\src\traditional\math\fxd1616s.asm
                D1616SNEG   0x007ba8    program     static C:\MCC18\v3_39\src\traditional\math\fxd1616s.asm
                 D1616SOK   0x007ba4    program     static C:\MCC18\v3_39\src\traditional\math\fxd1616s.asm
                  D1616SX   0x007bba    program     static C:\MCC18\v3_39\src\traditional\math\fxd1616s.asm
                   D3232S   0x007bf4    program     static C:\MCC18\v3_39\src\traditional\math\fxd3232s.asm
                D3232SNEG   0x007c02    program     static C:\MCC18\v3_39\src\traditional\math\fxd3232s.asm
                 D3232SOK   0x007bfe    program     static C:\MCC18\v3_39\src\traditional\math\fxd3232s.asm
                  D3232SX   0x007c22    program     static C:\MCC18\v3_39\src\traditional\math\fxd3232s.asm
                  DA0808S   0x007b50    program     static C:\MCC18\v3_39\src\traditional\math\fxd0808s.asm
                  DA1616S   0x007b8a    program     static C:\MCC18\v3_39\src\traditional\math\fxd1616s.asm
                  DA3232S   0x007bde    program     static C:\MCC18\v3_39\src\traditional\math\fxd3232s.asm
             Delay100TCYx   0x009ef0    program     extern C:\MCC18\v3_39\src\traditional\delays\d100tcyx.asm
             Delay10KTCYx   0x009dfe    program     extern C:\MCC18\v3_39\src\traditional\delays\d10ktcyx.asm
              Delay10TCYx   0x009f28    program     extern C:\MCC18\v3_39\src\traditional\delays\d10tcyx.asm
                   EERead   0x0096dc    program     extern /projet/faziasep/FEE/Step_4/conception/PIC/PIC_V4_OK/src/myfunc/wr_eeprom.c
                  EEWrite   0x0096ac    program     extern /projet/faziasep/FEE/Step_4/conception/PIC/PIC_V4_OK/src/myfunc/wr_eeprom.c
                 FLO1632S   0x007870    program     extern C:\MCC18\v3_39\src\traditional\math\cast16FP.asm
                 FLO1632U   0x00786c    program     extern C:\MCC18\v3_39\src\traditional\math\cast16FP.asm
                    FPA32   0x007898    program     extern C:\MCC18\v3_39\src\traditional\math\addFP.asm
                    FPD32   0x0079c4    program     extern C:\MCC18\v3_39\src\traditional\math\divFP.asm
                    FPM32   0x007a6a    program     extern C:\MCC18\v3_39\src\traditional\math\mulFP.asm
                    FPS32   0x007896    program     extern C:\MCC18\v3_39\src\traditional\math\addFP.asm
                 FXD0808S   0x007b44    program     extern C:\MCC18\v3_39\src\traditional\math\fxd0808s.asm
                 FXD0808U   0x009f0c    program     extern C:\MCC18\v3_39\src\traditional\math\fxd0808u.c
                 FXD1616S   0x007b78    program     extern C:\MCC18\v3_39\src\traditional\math\fxd1616s.asm
                 FXD1616U   0x009e88    program     extern C:\MCC18\v3_39\src\traditional\math\fxd1616u.c
                 FXD3232S   0x007bc4    program     extern C:\MCC18\v3_39\src\traditional\math\fxd3232s.asm
                 FXD3232U   0x009bd6    program     extern C:\MCC18\v3_39\src\traditional\math\fxd3232u.c
                 FXM1616S   0x007c2c    program     extern C:\MCC18\v3_39\src\traditional\math\fxm1616s.asm
                 FXM1616U   0x007c86    program     extern C:\MCC18\v3_39\src\traditional\math\fxm1616u.asm
                  FXM3232   0x009afc    program     extern C:\MCC18\v3_39\src\traditional\math\fxm3232.c
                   HVfunc   0x00443e    program     extern /projet/faziasep/FEE/Step_4/conception/PIC/PIC_V4_OK/src/main.c
                  INT3216   0x007cc2    program     extern C:\MCC18\v3_39\src\traditional\math\castFP16.asm
                  OpenSPI   0x009b6c    program     extern C:\MCC18\v3_39\src\pmc_common\SPI\spi_open.c
               OpenTimer1   0x009c60    program     extern C:\MCC18\v3_39\src\pmc_common\Timers\t1open.c
               OpenTimer2   0x009dc8    program     extern C:\MCC18\v3_39\src\pmc_common\Timers\t2open.c
               OpenTimer3   0x009c1e    program     extern C:\MCC18\v3_39\src\pmc_common\Timers\t3open.c
                  ReadSPI   0x009e5a    program     extern C:\MCC18\v3_39\src\pmc_common\SPI\spi_read.c
               ReadTimer1   0x009ce0    program     extern C:\MCC18\v3_39\src\pmc_common\Timers\t1read.c
                ReadUSART   0x009ca2    program     extern C:\MCC18\v3_39\src\pmc_common\USART\uread.c
               TSIGN1616A   0x007c78    program     static C:\MCC18\v3_39\src\traditional\math\fxm1616s.asm
                 WriteSPI   0x009d1e    program     extern C:\MCC18\v3_39\src\pmc_common\SPI\spi_writ.c
              WriteTimer1   0x009d5a    program     extern C:\MCC18\v3_39\src\pmc_common\Timers\t1write.c
               WriteUSART   0x009e2c    program     extern C:\MCC18\v3_39\src\pmc_common\USART\uwrite.c
              _2jContinue   0x0099d2    program     static C:\MCC18\v3_39\src\traditional\stdclib\memset.asm
                   _3jEnd   0x0099dc    program     static C:\MCC18\v3_39\src\traditional\stdclib\memset.asm
              _4jContinue   0x009a36    program     static C:\MCC18\v3_39\src\traditional\stdclib\strncpy.asm
                   _5jEnd   0x009a40    program     static C:\MCC18\v3_39\src\traditional\stdclib\strncpy.asm
       _D100TCYXCODE_0008   0x009ef8    program     static C:\MCC18\v3_39\src\traditional\delays\d100tcyx.asm
       _D100TCYXCODE_0012   0x009f02    program     static C:\MCC18\v3_39\src\traditional\delays\d100tcyx.asm
       _D100TCYXCODE_0018   0x009f08    program     static C:\MCC18\v3_39\src\traditional\delays\d100tcyx.asm
       _D10KTCYXCODE_0010   0x009e0e    program     static C:\MCC18\v3_39\src\traditional\delays\d10ktcyx.asm
       _D10KTCYXCODE_001C   0x009e1a    program     static C:\MCC18\v3_39\src\traditional\delays\d10ktcyx.asm
        _D10TCYXCODE_000A   0x009f32    program     static C:\MCC18\v3_39\src\traditional\delays\d10tcyx.asm
        _D10TCYXCODE_000C   0x009f34    program     static C:\MCC18\v3_39\src\traditional\delays\d10tcyx.asm
        _D10TCYXCODE_000E   0x009f36    program     static C:\MCC18\v3_39\src\traditional\delays\d10tcyx.asm
                 __FpExit   0x007d2c    program     extern C:\MCC18\v3_39\src\traditional\math\packFP.asm
                 __FpPack   0x007d58    program     extern C:\MCC18\v3_39\src\traditional\math\packFP.asm
            __FpReturnNaN   0x007d20    program     extern C:\MCC18\v3_39\src\traditional\math\packFP.asm
         __FpReturnNegInf   0x007d32    program     extern C:\MCC18\v3_39\src\traditional\math\packFP.asm
        __FpReturnNegZero   0x007d4a    program     extern C:\MCC18\v3_39\src\traditional\math\packFP.asm
         __FpReturnPosInf   0x007d38    program     extern C:\MCC18\v3_39\src\traditional\math\packFP.asm
        __FpReturnPosZero   0x007d52    program     extern C:\MCC18\v3_39\src\traditional\math\packFP.asm
        __FpReturnSignInf   0x007d2e    program     extern C:\MCC18\v3_39\src\traditional\math\packFP.asm
       __FpReturnSignZero   0x007d46    program     extern C:\MCC18\v3_39\src\traditional\math\packFP.asm
              __FpReturnW   0x007db0    program     extern C:\MCC18\v3_39\src\traditional\math\packFP.asm
              __FpUnPackA   0x007dd0    program     extern C:\MCC18\v3_39\src\traditional\math\UnpackFP.asm
              __FpUnPackB   0x007e00    program     extern C:\MCC18\v3_39\src\traditional\math\UnpackFP.asm
           ___do_lbl00005   0x002fc2    program     static                          
           ___do_lbl00006   0x002fc8    program     static                          
           ___do_lbl00012   0x002f6c    program     static                          
         ___else_lbl00020   0x0031b6    program     static                          
         ___else_lbl00027   0x0033d2    program     static                          
         ___else_lbl00033   0x003690    program     static                          
         ___else_lbl00035   0x003712    program     static                          
         ___else_lbl00037   0x0035b4    program     static                          
         ___else_lbl00041   0x003900    program     static                          
         ___else_lbl00043   0x0039e6    program     static                          
         ___else_lbl00045   0x003acc    program     static                          
         ___else_lbl00047   0x003bb2    program     static                          
         ___else_lbl00058   0x003cfe    program     static                          
         ___else_lbl00062   0x003d70    program     static                          
         ___else_lbl00076   0x003f66    program     static                          
         ___else_lbl00079   0x00401a    program     static                          
          ___for_lbl00007   0x002fb2    program     static                          
          ___for_lbl00008   0x002fb8    program     static                          
          ___for_lbl00010   0x002f8a    program     static                          
          ___for_lbl00013   0x0031fc    program     static                          
          ___for_lbl00014   0x003202    program     static                          
          ___for_lbl00021   0x002fd6    program     static                          
          ___for_lbl00028   0x003472    program     static                          
          ___for_lbl00029   0x00347c    program     static                          
          ___for_lbl00030   0x00343e    program     static                          
           ___if_lbl00001   0x000092    program     static                          
           ___if_lbl00002   0x0000a4    program     static                          
           ___if_lbl00003   0x0000dc    program     static                          
           ___if_lbl00004   0x002f6a    program     static                          
           ___if_lbl00007   0x0000f6    program     static                          
           ___if_lbl00008   0x000236    program     static                          
           ___if_lbl00009   0x00023a    program     static                          
           ___if_lbl00009   0x002fb2    program     static                          
           ___if_lbl00011   0x002fc2    program     static                          
           ___if_lbl00016   0x0030ea    program     static                          
           ___if_lbl00018   0x003186    program     static                          
           ___if_lbl00019   0x0031fc    program     static                          
           ___if_lbl00022   0x003202    program     static                          
           ___if_lbl00026   0x003432    program     static                          
           ___if_lbl00032   0x003710    program     static                          
           ___if_lbl00034   0x003792    program     static                          
           ___if_lbl00036   0x003826    program     static                          
           ___if_lbl00038   0x003826    program     static                          
           ___if_lbl00039   0x003826    program     static                          
           ___if_lbl00040   0x00390a    program     static                          
           ___if_lbl00042   0x0039f0    program     static                          
           ___if_lbl00044   0x003ad6    program     static                          
           ___if_lbl00046   0x003bbc    program     static                          
           ___if_lbl00049   0x003c60    program     static                          
           ___if_lbl00051   0x003c92    program     static                          
           ___if_lbl00053   0x003cc4    program     static                          
           ___if_lbl00055   0x003cf6    program     static                          
           ___if_lbl00056   0x003cfc    program     static                          
           ___if_lbl00057   0x003d02    program     static                          
           ___if_lbl00060   0x003d6e    program     static                          
           ___if_lbl00061   0x003d74    program     static                          
           ___if_lbl00064   0x003de2    program     static                          
           ___if_lbl00065   0x003de2    program     static                          
           ___if_lbl00067   0x003e8c    program     static                          
           ___if_lbl00069   0x003ed2    program     static                          
           ___if_lbl00071   0x003f18    program     static                          
           ___if_lbl00073   0x003f5e    program     static                          
           ___if_lbl00074   0x003f64    program     static                          
           ___if_lbl00075   0x003f6a    program     static                          
           ___if_lbl00077   0x004018    program     static                          
           ___if_lbl00078   0x00401e    program     static                          
       ___return_lbl00000   0x009eb2    program     static                          
       ___return_lbl00000   0x00023a    program     static                          
       ___return_lbl00000   0x009f26    program     static                          
       ___return_lbl00000   0x000004    program     static                          
       ___return_lbl00000   0x009f52    program     static                          
       ___return_lbl00000   0x004022    program     static                          
       ___return_lbl00000   0x009c1c    program     static                          
       ___return_lbl00000   0x009b6a    program     static                          
       ___return_lbl00001   0x009eee    program     static                          
       ___return_lbl00002   0x009afa    program     static                          
       ___return_lbl00006   0x0004d6    program     static                          
        ___while_lbl00001   0x002e90    program     static                          
        ___while_lbl00002   0x002f6c    program     static                          
        ___while_lbl00004   0x0000dc    program     static                          
        ___while_lbl00005   0x000238    program     static                          
        ___while_lbl00023   0x003238    program     static                          
        ___while_lbl00024   0x004022    program     static                          
               __config_0   0x300001    program     static /projet/faziasep/FEE/Step_4/conception/PIC/PIC_V4_OK/src/main.c
               __config_1   0x300002    program     static /projet/faziasep/FEE/Step_4/conception/PIC/PIC_V4_OK/src/main.c
               __config_2   0x300003    program     static /projet/faziasep/FEE/Step_4/conception/PIC/PIC_V4_OK/src/main.c
               __config_3   0x300005    program     static /projet/faziasep/FEE/Step_4/conception/PIC/PIC_V4_OK/src/main.c
               __config_4   0x300006    program     static /projet/faziasep/FEE/Step_4/conception/PIC/PIC_V4_OK/src/main.c
                   __init   0x000006    program     extern C:\MCC18\v3_39\src\traditional\stdclib\__init.c
                   __pa_0   0x008164    program     static /projet/faziasep/FEE/Step_4/conception/PIC/PIC_V4_OK/src/myfunc/ads8332.c
                   __pa_0   0x0066d4    program     static /projet/faziasep/FEE/Step_4/conception/PIC/PIC_V4_OK/src/myfunc/dac8568.c
                   __pa_0   0x008f1a    program     static /projet/faziasep/FEE/Step_4/conception/PIC/PIC_V4_OK/src/myfunc/spi.c
                   __pa_0   0x0096f4    program     static /projet/faziasep/FEE/Step_4/conception/PIC/PIC_V4_OK/src/myfunc/wr_eeprom.c
                   __pa_0   0x0098a4    program     static /projet/faziasep/FEE/Step_4/conception/PIC/PIC_V4_OK/src/utils.c
                   __pa_0   0x002642    program     static /projet/faziasep/FEE/Step_4/conception/PIC/PIC_V4_OK/src/functions.c
                   __pa_0   0x00919e    program     static /projet/faziasep/FEE/Step_4/conception/PIC/PIC_V4_OK/src/frame.c
                   __pa_0   0x00550c    program     static /projet/faziasep/FEE/Step_4/conception/PIC/PIC_V4_OK/src/myfunc/display.c
                   __pa_0   0x005f1c    program     static /projet/faziasep/FEE/Step_4/conception/PIC/PIC_V4_OK/src/setup.c
                   __pa_0   0x008b9a    program     static /projet/faziasep/FEE/Step_4/conception/PIC/PIC_V4_OK/src/cbuffer.c
                   __pa_0   0x009478    program     static /projet/faziasep/FEE/Step_4/conception/PIC/PIC_V4_OK/src/uartbuf.c
                   __pa_0   0x00491e    program     static /projet/faziasep/FEE/Step_4/conception/PIC/PIC_V4_OK/src/main.c
                   __pa_0   0x0075bc    program     static /projet/faziasep/FEE/Step_4/conception/PIC/PIC_V4_OK/src/myfunc/analog.c
                   __pa_0   0x006f80    program     static /projet/faziasep/FEE/Step_4/conception/PIC/PIC_V4_OK/src/myfunc/Tsensor.c
                   __pa_0   0x008822    program     static /projet/faziasep/FEE/Step_4/conception/PIC/PIC_V4_OK/src/myfunc/maths.c
                   __pa_1   0x002648    program     static /projet/faziasep/FEE/Step_4/conception/PIC/PIC_V4_OK/src/functions.c
                   __pa_1   0x005f2a    program     static /projet/faziasep/FEE/Step_4/conception/PIC/PIC_V4_OK/src/setup.c
                   __pa_1   0x0098b2    program     static /projet/faziasep/FEE/Step_4/conception/PIC/PIC_V4_OK/src/utils.c
                   __pa_1   0x006f86    program     static /projet/faziasep/FEE/Step_4/conception/PIC/PIC_V4_OK/src/myfunc/Tsensor.c
                   __pa_1   0x008ba8    program     static /projet/faziasep/FEE/Step_4/conception/PIC/PIC_V4_OK/src/cbuffer.c
                   __pa_1   0x00972e    program     static /projet/faziasep/FEE/Step_4/conception/PIC/PIC_V4_OK/src/myfunc/wr_eeprom.c
                   __pa_1   0x0066fc    program     static /projet/faziasep/FEE/Step_4/conception/PIC/PIC_V4_OK/src/myfunc/dac8568.c
                   __pa_1   0x008830    program     static /projet/faziasep/FEE/Step_4/conception/PIC/PIC_V4_OK/src/myfunc/maths.c
                   __pa_1   0x0075ce    program     static /projet/faziasep/FEE/Step_4/conception/PIC/PIC_V4_OK/src/myfunc/analog.c
                   __pa_1   0x00817e    program     static /projet/faziasep/FEE/Step_4/conception/PIC/PIC_V4_OK/src/myfunc/ads8332.c
                   __pa_1   0x008f2a    program     static /projet/faziasep/FEE/Step_4/conception/PIC/PIC_V4_OK/src/myfunc/spi.c
                   __pa_1   0x009498    program     static /projet/faziasep/FEE/Step_4/conception/PIC/PIC_V4_OK/src/uartbuf.c
                   __pa_1   0x00551e    program     static /projet/faziasep/FEE/Step_4/conception/PIC/PIC_V4_OK/src/myfunc/display.c
                   __pa_1   0x0091ac    program     static /projet/faziasep/FEE/Step_4/conception/PIC/PIC_V4_OK/src/frame.c
                   __pa_1   0x004926    program     static /projet/faziasep/FEE/Step_4/conception/PIC/PIC_V4_OK/src/main.c
                  __pa_10   0x002698    program     static /projet/faziasep/FEE/Step_4/conception/PIC/PIC_V4_OK/src/functions.c
                  __pa_10   0x007042    program     static /projet/faziasep/FEE/Step_4/conception/PIC/PIC_V4_OK/src/myfunc/Tsensor.c
                  __pa_10   0x00925e    program     static /projet/faziasep/FEE/Step_4/conception/PIC/PIC_V4_OK/src/frame.c
                  __pa_10   0x008272    program     static /projet/faziasep/FEE/Step_4/conception/PIC/PIC_V4_OK/src/myfunc/ads8332.c
                  __pa_10   0x004a26    program     static /projet/faziasep/FEE/Step_4/conception/PIC/PIC_V4_OK/src/main.c
                  __pa_10   0x009518    program     static /projet/faziasep/FEE/Step_4/conception/PIC/PIC_V4_OK/src/uartbuf.c
                  __pa_10   0x008c4e    program     static /projet/faziasep/FEE/Step_4/conception/PIC/PIC_V4_OK/src/cbuffer.c
                  __pa_10   0x0055d0    program     static /projet/faziasep/FEE/Step_4/conception/PIC/PIC_V4_OK/src/myfunc/display.c
                  __pa_10   0x007696    program     static /projet/faziasep/FEE/Step_4/conception/PIC/PIC_V4_OK/src/myfunc/analog.c
                  __pa_10   0x005fcc    program     static /projet/faziasep/FEE/Step_4/conception/PIC/PIC_V4_OK/src/setup.c
                  __pa_10   0x0088dc    program     static /projet/faziasep/FEE/Step_4/conception/PIC/PIC_V4_OK/src/myfunc/maths.c
                  __pa_10   0x006806    program     static /projet/faziasep/FEE/Step_4/conception/PIC/PIC_V4_OK/src/myfunc/dac8568.c
                  __pa_10   0x008f9e    program     static /projet/faziasep/FEE/Step_4/conception/PIC/PIC_V4_OK/src/myfunc/spi.c
                 __pa_100   0x002af4    program     static /projet/faziasep/FEE/Step_4/conception/PIC/PIC_V4_OK/src/functions.c
                 __pa_101   0x002afc    program     static /projet/faziasep/FEE/Step_4/conception/PIC/PIC_V4_OK/src/functions.c
                 __pa_102   0x002b02    program     static /projet/faziasep/FEE/Step_4/conception/PIC/PIC_V4_OK/src/functions.c
                 __pa_103   0x002b10    program     static /projet/faziasep/FEE/Step_4/conception/PIC/PIC_V4_OK/src/functions.c
                 __pa_104   0x002b18    program     static /projet/faziasep/FEE/Step_4/conception/PIC/PIC_V4_OK/src/functions.c
                 __pa_105   0x002b30    program     static /projet/faziasep/FEE/Step_4/conception/PIC/PIC_V4_OK/src/functions.c
                 __pa_106   0x002b36    program     static /projet/faziasep/FEE/Step_4/conception/PIC/PIC_V4_OK/src/functions.c
                 __pa_107   0x002b3c    program     static /projet/faziasep/FEE/Step_4/conception/PIC/PIC_V4_OK/src/functions.c
                 __pa_108   0x002b42    program     static /projet/faziasep/FEE/Step_4/conception/PIC/PIC_V4_OK/src/functions.c
                 __pa_109   0x002b48    program     static /projet/faziasep/FEE/Step_4/conception/PIC/PIC_V4_OK/src/functions.c
                  __pa_11   0x008c5c    program     static /projet/faziasep/FEE/Step_4/conception/PIC/PIC_V4_OK/src/cbuffer.c
                  __pa_11   0x008fa6    program     static /projet/faziasep/FEE/Step_4/conception/PIC/PIC_V4_OK/src/myfunc/spi.c
                  __pa_11   0x0055e0    program     static /projet/faziasep/FEE/Step_4/conception/PIC/PIC_V4_OK/src/myfunc/display.c
                  __pa_11   0x0076ac    program     static /projet/faziasep/FEE/Step_4/conception/PIC/PIC_V4_OK/src/myfunc/analog.c
                  __pa_11   0x009528    program     static /projet/faziasep/FEE/Step_4/conception/PIC/PIC_V4_OK/src/uartbuf.c
                  __pa_11   0x005fd8    program     static /projet/faziasep/FEE/Step_4/conception/PIC/PIC_V4_OK/src/setup.c
                  __pa_11   0x0088e4    program     static /projet/faziasep/FEE/Step_4/conception/PIC/PIC_V4_OK/src/myfunc/maths.c
                  __pa_11   0x00704e    program     static /projet/faziasep/FEE/Step_4/conception/PIC/PIC_V4_OK/src/myfunc/Tsensor.c
                  __pa_11   0x008284    program     static /projet/faziasep/FEE/Step_4/conception/PIC/PIC_V4_OK/src/myfunc/ads8332.c
                  __pa_11   0x00926c    program     static /projet/faziasep/FEE/Step_4/conception/PIC/PIC_V4_OK/src/frame.c
                  __pa_11   0x004a2c    program     static /projet/faziasep/FEE/Step_4/conception/PIC/PIC_V4_OK/src/main.c
                  __pa_11   0x006810    program     static /projet/faziasep/FEE/Step_4/conception/PIC/PIC_V4_OK/src/myfunc/dac8568.c
                  __pa_11   0x0026a0    program     static /projet/faziasep/FEE/Step_4/conception/PIC/PIC_V4_OK/src/functions.c
                 __pa_110   0x002b54    program     static /projet/faziasep/FEE/Step_4/conception/PIC/PIC_V4_OK/src/functions.c
                 __pa_111   0x002b5c    program     static /projet/faziasep/FEE/Step_4/conception/PIC/PIC_V4_OK/src/functions.c
                 __pa_112   0x002b64    program     static /projet/faziasep/FEE/Step_4/conception/PIC/PIC_V4_OK/src/functions.c
                 __pa_113   0x002b6a    program     static /projet/faziasep/FEE/Step_4/conception/PIC/PIC_V4_OK/src/functions.c
                 __pa_114   0x002b7a    program     static /projet/faziasep/FEE/Step_4/conception/PIC/PIC_V4_OK/src/functions.c
                 __pa_115   0x002b8a    program     static /projet/faziasep/FEE/Step_4/conception/PIC/PIC_V4_OK/src/functions.c
                 __pa_116   0x002b92    program     static /projet/faziasep/FEE/Step_4/conception/PIC/PIC_V4_OK/src/functions.c
                 __pa_117   0x002b98    program     static /projet/faziasep/FEE/Step_4/conception/PIC/PIC_V4_OK/src/functions.c
                 __pa_118   0x002b9e    program     static /projet/faziasep/FEE/Step_4/conception/PIC/PIC_V4_OK/src/functions.c
                 __pa_119   0x002ba4    program     static /projet/faziasep/FEE/Step_4/conception/PIC/PIC_V4_OK/src/functions.c
                  __pa_12   0x008c64    program     static /projet/faziasep/FEE/Step_4/conception/PIC/PIC_V4_OK/src/cbuffer.c
                  __pa_12   0x006832    program     static /projet/faziasep/FEE/Step_4/conception/PIC/PIC_V4_OK/src/myfunc/dac8568.c
                  __pa_12   0x0088f2    program     static /projet/faziasep/FEE/Step_4/conception/PIC/PIC_V4_OK/src/myfunc/maths.c
                  __pa_12   0x005602    program     static /projet/faziasep/FEE/Step_4/conception/PIC/PIC_V4_OK/src/myfunc/display.c
                  __pa_12   0x008fb0    program     static /projet/faziasep/FEE/Step_4/conception/PIC/PIC_V4_OK/src/myfunc/spi.c
                  __pa_12   0x0076c0    program     static /projet/faziasep/FEE/Step_4/conception/PIC/PIC_V4_OK/src/myfunc/analog.c
                  __pa_12   0x007054    program     static /projet/faziasep/FEE/Step_4/conception/PIC/PIC_V4_OK/src/myfunc/Tsensor.c
                  __pa_12   0x005ff0    program     static /projet/faziasep/FEE/Step_4/conception/PIC/PIC_V4_OK/src/setup.c
                  __pa_12   0x0026ac    program     static /projet/faziasep/FEE/Step_4/conception/PIC/PIC_V4_OK/src/functions.c
                  __pa_12   0x00829e    program     static /projet/faziasep/FEE/Step_4/conception/PIC/PIC_V4_OK/src/myfunc/ads8332.c
                  __pa_12   0x00927a    program     static /projet/faziasep/FEE/Step_4/conception/PIC/PIC_V4_OK/src/frame.c
                  __pa_12   0x004a46    program     static /projet/faziasep/FEE/Step_4/conception/PIC/PIC_V4_OK/src/main.c
                 __pa_120   0x002baa    program     static /projet/faziasep/FEE/Step_4/conception/PIC/PIC_V4_OK/src/functions.c
                 __pa_121   0x002bb0    program     static /projet/faziasep/FEE/Step_4/conception/PIC/PIC_V4_OK/src/functions.c
                 __pa_122   0x002bb6    program     static /projet/faziasep/FEE/Step_4/conception/PIC/PIC_V4_OK/src/functions.c
                 __pa_123   0x002bc2    program     static /projet/faziasep/FEE/Step_4/conception/PIC/PIC_V4_OK/src/functions.c
                 __pa_124   0x002bcc    program     static /projet/faziasep/FEE/Step_4/conception/PIC/PIC_V4_OK/src/functions.c
                 __pa_125   0x002bd4    program     static /projet/faziasep/FEE/Step_4/conception/PIC/PIC_V4_OK/src/functions.c
                 __pa_126   0x002bda    program     static /projet/faziasep/FEE/Step_4/conception/PIC/PIC_V4_OK/src/functions.c
                 __pa_127   0x002be2    program     static /projet/faziasep/FEE/Step_4/conception/PIC/PIC_V4_OK/src/functions.c
                 __pa_128   0x002bf0    program     static /projet/faziasep/FEE/Step_4/conception/PIC/PIC_V4_OK/src/functions.c
                 __pa_129   0x002bfc    program     static /projet/faziasep/FEE/Step_4/conception/PIC/PIC_V4_OK/src/functions.c
                  __pa_13   0x005ffe    program     static /projet/faziasep/FEE/Step_4/conception/PIC/PIC_V4_OK/src/setup.c
                  __pa_13   0x009288    program     static /projet/faziasep/FEE/Step_4/conception/PIC/PIC_V4_OK/src/frame.c
                  __pa_13   0x0026b2    program     static /projet/faziasep/FEE/Step_4/conception/PIC/PIC_V4_OK/src/functions.c
                  __pa_13   0x0082b8    program     static /projet/faziasep/FEE/Step_4/conception/PIC/PIC_V4_OK/src/myfunc/ads8332.c
                  __pa_13   0x0076de    program     static /projet/faziasep/FEE/Step_4/conception/PIC/PIC_V4_OK/src/myfunc/analog.c
                  __pa_13   0x007064    program     static /projet/faziasep/FEE/Step_4/conception/PIC/PIC_V4_OK/src/myfunc/Tsensor.c
                  __pa_13   0x008fba    program     static /projet/faziasep/FEE/Step_4/conception/PIC/PIC_V4_OK/src/myfunc/spi.c
                  __pa_13   0x008900    program     static /projet/faziasep/FEE/Step_4/conception/PIC/PIC_V4_OK/src/myfunc/maths.c
                  __pa_13   0x006844    program     static /projet/faziasep/FEE/Step_4/conception/PIC/PIC_V4_OK/src/myfunc/dac8568.c
                  __pa_13   0x004a64    program     static /projet/faziasep/FEE/Step_4/conception/PIC/PIC_V4_OK/src/main.c
                  __pa_13   0x008c6c    program     static /projet/faziasep/FEE/Step_4/conception/PIC/PIC_V4_OK/src/cbuffer.c
                  __pa_13   0x005622    program     static /projet/faziasep/FEE/Step_4/conception/PIC/PIC_V4_OK/src/myfunc/display.c
                 __pa_130   0x002c06    program     static /projet/faziasep/FEE/Step_4/conception/PIC/PIC_V4_OK/src/functions.c
                 __pa_131   0x002c12    program     static /projet/faziasep/FEE/Step_4/conception/PIC/PIC_V4_OK/src/functions.c
                 __pa_132   0x002c1e    program     static /projet/faziasep/FEE/Step_4/conception/PIC/PIC_V4_OK/src/functions.c
                 __pa_133   0x002c26    program     static /projet/faziasep/FEE/Step_4/conception/PIC/PIC_V4_OK/src/functions.c
                 __pa_134   0x002c2e    program     static /projet/faziasep/FEE/Step_4/conception/PIC/PIC_V4_OK/src/functions.c
                 __pa_135   0x002c36    program     static /projet/faziasep/FEE/Step_4/conception/PIC/PIC_V4_OK/src/functions.c
                 __pa_136   0x002c3e    program     static /projet/faziasep/FEE/Step_4/conception/PIC/PIC_V4_OK/src/functions.c
                 __pa_137   0x002c42    program     static /projet/faziasep/FEE/Step_4/conception/PIC/PIC_V4_OK/src/functions.c
                 __pa_138   0x002c4a    program     static /projet/faziasep/FEE/Step_4/conception/PIC/PIC_V4_OK/src/functions.c
                 __pa_139   0x002c52    program     static /projet/faziasep/FEE/Step_4/conception/PIC/PIC_V4_OK/src/functions.c
                  __pa_14   0x00890e    program     static /projet/faziasep/FEE/Step_4/conception/PIC/PIC_V4_OK/src/myfunc/maths.c
                  __pa_14   0x008fc0    program     static /projet/faziasep/FEE/Step_4/conception/PIC/PIC_V4_OK/src/myfunc/spi.c
                  __pa_14   0x006856    program     static /projet/faziasep/FEE/Step_4/conception/PIC/PIC_V4_OK/src/myfunc/dac8568.c
                  __pa_14   0x0026e6    program     static /projet/faziasep/FEE/Step_4/conception/PIC/PIC_V4_OK/src/functions.c
                  __pa_14   0x005634    program     static /projet/faziasep/FEE/Step_4/conception/PIC/PIC_V4_OK/src/myfunc/display.c
                  __pa_14   0x004a74    program     static /projet/faziasep/FEE/Step_4/conception/PIC/PIC_V4_OK/src/main.c
                  __pa_14   0x009296    program     static /projet/faziasep/FEE/Step_4/conception/PIC/PIC_V4_OK/src/frame.c
                  __pa_14   0x0082d0    program     static /projet/faziasep/FEE/Step_4/conception/PIC/PIC_V4_OK/src/myfunc/ads8332.c
                  __pa_14   0x007072    program     static /projet/faziasep/FEE/Step_4/conception/PIC/PIC_V4_OK/src/myfunc/Tsensor.c
                  __pa_14   0x0076ea    program     static /projet/faziasep/FEE/Step_4/conception/PIC/PIC_V4_OK/src/myfunc/analog.c
                  __pa_14   0x008c74    program     static /projet/faziasep/FEE/Step_4/conception/PIC/PIC_V4_OK/src/cbuffer.c
                  __pa_14   0x006008    program     static /projet/faziasep/FEE/Step_4/conception/PIC/PIC_V4_OK/src/setup.c
                 __pa_140   0x002c5c    program     static /projet/faziasep/FEE/Step_4/conception/PIC/PIC_V4_OK/src/functions.c
                 __pa_141   0x002c66    program     static /projet/faziasep/FEE/Step_4/conception/PIC/PIC_V4_OK/src/functions.c
                 __pa_142   0x002c6c    program     static /projet/faziasep/FEE/Step_4/conception/PIC/PIC_V4_OK/src/functions.c
                 __pa_143   0x002c74    program     static /projet/faziasep/FEE/Step_4/conception/PIC/PIC_V4_OK/src/functions.c
                 __pa_144   0x002c82    program     static /projet/faziasep/FEE/Step_4/conception/PIC/PIC_V4_OK/src/functions.c
                 __pa_145   0x002c90    program     static /projet/faziasep/FEE/Step_4/conception/PIC/PIC_V4_OK/src/functions.c
                 __pa_146   0x002c9e    program     static /projet/faziasep/FEE/Step_4/conception/PIC/PIC_V4_OK/src/functions.c
                 __pa_147   0x002ca4    program     static /projet/faziasep/FEE/Step_4/conception/PIC/PIC_V4_OK/src/functions.c
                 __pa_148   0x002cb2    program     static /projet/faziasep/FEE/Step_4/conception/PIC/PIC_V4_OK/src/functions.c
                 __pa_149   0x002cba    program     static /projet/faziasep/FEE/Step_4/conception/PIC/PIC_V4_OK/src/functions.c
                  __pa_15   0x005644    program     static /projet/faziasep/FEE/Step_4/conception/PIC/PIC_V4_OK/src/myfunc/display.c
                  __pa_15   0x0076fe    program     static /projet/faziasep/FEE/Step_4/conception/PIC/PIC_V4_OK/src/myfunc/analog.c
                  __pa_15   0x008916    program     static /projet/faziasep/FEE/Step_4/conception/PIC/PIC_V4_OK/src/myfunc/maths.c
                  __pa_15   0x004a7e    program     static /projet/faziasep/FEE/Step_4/conception/PIC/PIC_V4_OK/src/main.c
                  __pa_15   0x008c7c    program     static /projet/faziasep/FEE/Step_4/conception/PIC/PIC_V4_OK/src/cbuffer.c
                  __pa_15   0x0082e8    program     static /projet/faziasep/FEE/Step_4/conception/PIC/PIC_V4_OK/src/myfunc/ads8332.c
                  __pa_15   0x006870    program     static /projet/faziasep/FEE/Step_4/conception/PIC/PIC_V4_OK/src/myfunc/dac8568.c
                  __pa_15   0x00708a    program     static /projet/faziasep/FEE/Step_4/conception/PIC/PIC_V4_OK/src/myfunc/Tsensor.c
                  __pa_15   0x006012    program     static /projet/faziasep/FEE/Step_4/conception/PIC/PIC_V4_OK/src/setup.c
                  __pa_15   0x0026ee    program     static /projet/faziasep/FEE/Step_4/conception/PIC/PIC_V4_OK/src/functions.c
                 __pa_150   0x002cc0    program     static /projet/faziasep/FEE/Step_4/conception/PIC/PIC_V4_OK/src/functions.c
                 __pa_151   0x002cc6    program     static /projet/faziasep/FEE/Step_4/conception/PIC/PIC_V4_OK/src/functions.c
                 __pa_152   0x002ccc    program     static /projet/faziasep/FEE/Step_4/conception/PIC/PIC_V4_OK/src/functions.c
                 __pa_153   0x002cd2    program     static /projet/faziasep/FEE/Step_4/conception/PIC/PIC_V4_OK/src/functions.c
                 __pa_154   0x002cd8    program     static /projet/faziasep/FEE/Step_4/conception/PIC/PIC_V4_OK/src/functions.c
                 __pa_155   0x002ce2    program     static /projet/faziasep/FEE/Step_4/conception/PIC/PIC_V4_OK/src/functions.c
                 __pa_156   0x002cea    program     static /projet/faziasep/FEE/Step_4/conception/PIC/PIC_V4_OK/src/functions.c
                 __pa_157   0x002cf4    program     static /projet/faziasep/FEE/Step_4/conception/PIC/PIC_V4_OK/src/functions.c
                 __pa_158   0x002cfc    program     static /projet/faziasep/FEE/Step_4/conception/PIC/PIC_V4_OK/src/functions.c
                 __pa_159   0x002d06    program     static /projet/faziasep/FEE/Step_4/conception/PIC/PIC_V4_OK/src/functions.c
                  __pa_16   0x0026f6    program     static /projet/faziasep/FEE/Step_4/conception/PIC/PIC_V4_OK/src/functions.c
                  __pa_16   0x006888    program     static /projet/faziasep/FEE/Step_4/conception/PIC/PIC_V4_OK/src/myfunc/dac8568.c
                  __pa_16   0x006024    program     static /projet/faziasep/FEE/Step_4/conception/PIC/PIC_V4_OK/src/setup.c
                  __pa_16   0x005654    program     static /projet/faziasep/FEE/Step_4/conception/PIC/PIC_V4_OK/src/myfunc/display.c
                  __pa_16   0x00891e    program     static /projet/faziasep/FEE/Step_4/conception/PIC/PIC_V4_OK/src/myfunc/maths.c
                  __pa_16   0x004a8a    program     static /projet/faziasep/FEE/Step_4/conception/PIC/PIC_V4_OK/src/main.c
                  __pa_16   0x0082f4    program     static /projet/faziasep/FEE/Step_4/conception/PIC/PIC_V4_OK/src/myfunc/ads8332.c
                  __pa_16   0x00770e    program     static /projet/faziasep/FEE/Step_4/conception/PIC/PIC_V4_OK/src/myfunc/analog.c
                  __pa_16   0x007092    program     static /projet/faziasep/FEE/Step_4/conception/PIC/PIC_V4_OK/src/myfunc/Tsensor.c
                  __pa_16   0x008c88    program     static /projet/faziasep/FEE/Step_4/conception/PIC/PIC_V4_OK/src/cbuffer.c
                 __pa_160   0x002d14    program     static /projet/faziasep/FEE/Step_4/conception/PIC/PIC_V4_OK/src/functions.c
                 __pa_161   0x002d1c    program     static /projet/faziasep/FEE/Step_4/conception/PIC/PIC_V4_OK/src/functions.c
                 __pa_162   0x002d20    program     static /projet/faziasep/FEE/Step_4/conception/PIC/PIC_V4_OK/src/functions.c
                 __pa_163   0x002d26    program     static /projet/faziasep/FEE/Step_4/conception/PIC/PIC_V4_OK/src/functions.c
                 __pa_164   0x002d2c    program     static /projet/faziasep/FEE/Step_4/conception/PIC/PIC_V4_OK/src/functions.c
                 __pa_165   0x002d34    program     static /projet/faziasep/FEE/Step_4/conception/PIC/PIC_V4_OK/src/functions.c
                 __pa_166   0x002d3a    program     static /projet/faziasep/FEE/Step_4/conception/PIC/PIC_V4_OK/src/functions.c
                 __pa_167   0x002d46    program     static /projet/faziasep/FEE/Step_4/conception/PIC/PIC_V4_OK/src/functions.c
                 __pa_168   0x002d50    program     static /projet/faziasep/FEE/Step_4/conception/PIC/PIC_V4_OK/src/functions.c
                 __pa_169   0x002d58    program     static /projet/faziasep/FEE/Step_4/conception/PIC/PIC_V4_OK/src/functions.c
                  __pa_17   0x0070a4    program     static /projet/faziasep/FEE/Step_4/conception/PIC/PIC_V4_OK/src/myfunc/Tsensor.c
                  __pa_17   0x00771e    program     static /projet/faziasep/FEE/Step_4/conception/PIC/PIC_V4_OK/src/myfunc/analog.c
                  __pa_17   0x0026fe    program     static /projet/faziasep/FEE/Step_4/conception/PIC/PIC_V4_OK/src/functions.c
                  __pa_17   0x006894    program     static /projet/faziasep/FEE/Step_4/conception/PIC/PIC_V4_OK/src/myfunc/dac8568.c
                  __pa_17   0x00566c    program     static /projet/faziasep/FEE/Step_4/conception/PIC/PIC_V4_OK/src/myfunc/display.c
                  __pa_17   0x008928    program     static /projet/faziasep/FEE/Step_4/conception/PIC/PIC_V4_OK/src/myfunc/maths.c
                  __pa_17   0x00602c    program     static /projet/faziasep/FEE/Step_4/conception/PIC/PIC_V4_OK/src/setup.c
                  __pa_17   0x004a96    program     static /projet/faziasep/FEE/Step_4/conception/PIC/PIC_V4_OK/src/main.c
                  __pa_17   0x0082fe    program     static /projet/faziasep/FEE/Step_4/conception/PIC/PIC_V4_OK/src/myfunc/ads8332.c
                 __pa_170   0x002d60    program     static /projet/faziasep/FEE/Step_4/conception/PIC/PIC_V4_OK/src/functions.c
                 __pa_171   0x002d68    program     static /projet/faziasep/FEE/Step_4/conception/PIC/PIC_V4_OK/src/functions.c
                 __pa_172   0x002d6e    program     static /projet/faziasep/FEE/Step_4/conception/PIC/PIC_V4_OK/src/functions.c
                 __pa_173   0x002d74    program     static /projet/faziasep/FEE/Step_4/conception/PIC/PIC_V4_OK/src/functions.c
                 __pa_174   0x002d7c    program     static /projet/faziasep/FEE/Step_4/conception/PIC/PIC_V4_OK/src/functions.c
                 __pa_175   0x002d92    program     static /projet/faziasep/FEE/Step_4/conception/PIC/PIC_V4_OK/src/functions.c
                 __pa_176   0x002da8    program     static /projet/faziasep/FEE/Step_4/conception/PIC/PIC_V4_OK/src/functions.c
                 __pa_177   0x002dbe    program     static /projet/faziasep/FEE/Step_4/conception/PIC/PIC_V4_OK/src/functions.c
                 __pa_178   0x002dd2    program     static /projet/faziasep/FEE/Step_4/conception/PIC/PIC_V4_OK/src/functions.c
                 __pa_179   0x002ddc    program     static /projet/faziasep/FEE/Step_4/conception/PIC/PIC_V4_OK/src/functions.c
                  __pa_18   0x004aa4    program     static /projet/faziasep/FEE/Step_4/conception/PIC/PIC_V4_OK/src/main.c
                  __pa_18   0x0070b6    program     static /projet/faziasep/FEE/Step_4/conception/PIC/PIC_V4_OK/src/myfunc/Tsensor.c
                  __pa_18   0x00567c    program     static /projet/faziasep/FEE/Step_4/conception/PIC/PIC_V4_OK/src/myfunc/display.c
                  __pa_18   0x0068a2    program     static /projet/faziasep/FEE/Step_4/conception/PIC/PIC_V4_OK/src/myfunc/dac8568.c
                  __pa_18   0x00830c    program     static /projet/faziasep/FEE/Step_4/conception/PIC/PIC_V4_OK/src/myfunc/ads8332.c
                  __pa_18   0x00270e    program     static /projet/faziasep/FEE/Step_4/conception/PIC/PIC_V4_OK/src/functions.c
                  __pa_18   0x00603a    program     static /projet/faziasep/FEE/Step_4/conception/PIC/PIC_V4_OK/src/setup.c
                  __pa_18   0x008930    program     static /projet/faziasep/FEE/Step_4/conception/PIC/PIC_V4_OK/src/myfunc/maths.c
                  __pa_18   0x00772e    program     static /projet/faziasep/FEE/Step_4/conception/PIC/PIC_V4_OK/src/myfunc/analog.c
                 __pa_180   0x002de4    program     static /projet/faziasep/FEE/Step_4/conception/PIC/PIC_V4_OK/src/functions.c
                 __pa_181   0x002dee    program     static /projet/faziasep/FEE/Step_4/conception/PIC/PIC_V4_OK/src/functions.c
                 __pa_182   0x002df6    program     static /projet/faziasep/FEE/Step_4/conception/PIC/PIC_V4_OK/src/functions.c
                 __pa_183   0x002e00    program     static /projet/faziasep/FEE/Step_4/conception/PIC/PIC_V4_OK/src/functions.c
                 __pa_184   0x002e06    program     static /projet/faziasep/FEE/Step_4/conception/PIC/PIC_V4_OK/src/functions.c
                 __pa_185   0x002e0e    program     static /projet/faziasep/FEE/Step_4/conception/PIC/PIC_V4_OK/src/functions.c
                  __pa_19   0x004ab2    program     static /projet/faziasep/FEE/Step_4/conception/PIC/PIC_V4_OK/src/main.c
                  __pa_19   0x0070bc    program     static /projet/faziasep/FEE/Step_4/conception/PIC/PIC_V4_OK/src/myfunc/Tsensor.c
                  __pa_19   0x0068b4    program     static /projet/faziasep/FEE/Step_4/conception/PIC/PIC_V4_OK/src/myfunc/dac8568.c
                  __pa_19   0x00773c    program     static /projet/faziasep/FEE/Step_4/conception/PIC/PIC_V4_OK/src/myfunc/analog.c
                  __pa_19   0x00568c    program     static /projet/faziasep/FEE/Step_4/conception/PIC/PIC_V4_OK/src/myfunc/display.c
                  __pa_19   0x008314    program     static /projet/faziasep/FEE/Step_4/conception/PIC/PIC_V4_OK/src/myfunc/ads8332.c
                  __pa_19   0x002718    program     static /projet/faziasep/FEE/Step_4/conception/PIC/PIC_V4_OK/src/functions.c
                  __pa_19   0x00893e    program     static /projet/faziasep/FEE/Step_4/conception/PIC/PIC_V4_OK/src/myfunc/maths.c
                  __pa_19   0x00604c    program     static /projet/faziasep/FEE/Step_4/conception/PIC/PIC_V4_OK/src/setup.c
                   __pa_2   0x0091be    program     static /projet/faziasep/FEE/Step_4/conception/PIC/PIC_V4_OK/src/frame.c
                   __pa_2   0x0094a8    program     static /projet/faziasep/FEE/Step_4/conception/PIC/PIC_V4_OK/src/uartbuf.c
                   __pa_2   0x005530    program     static /projet/faziasep/FEE/Step_4/conception/PIC/PIC_V4_OK/src/myfunc/display.c
                   __pa_2   0x009754    program     static /projet/faziasep/FEE/Step_4/conception/PIC/PIC_V4_OK/src/myfunc/wr_eeprom.c
                   __pa_2   0x006714    program     static /projet/faziasep/FEE/Step_4/conception/PIC/PIC_V4_OK/src/myfunc/dac8568.c
                   __pa_2   0x0075f0    program     static /projet/faziasep/FEE/Step_4/conception/PIC/PIC_V4_OK/src/myfunc/analog.c
                   __pa_2   0x004964    program     static /projet/faziasep/FEE/Step_4/conception/PIC/PIC_V4_OK/src/main.c
                   __pa_2   0x008bb4    program     static /projet/faziasep/FEE/Step_4/conception/PIC/PIC_V4_OK/src/cbuffer.c
                   __pa_2   0x00819a    program     static /projet/faziasep/FEE/Step_4/conception/PIC/PIC_V4_OK/src/myfunc/ads8332.c
                   __pa_2   0x0098be    program     static /projet/faziasep/FEE/Step_4/conception/PIC/PIC_V4_OK/src/utils.c
                   __pa_2   0x005f30    program     static /projet/faziasep/FEE/Step_4/conception/PIC/PIC_V4_OK/src/setup.c
                   __pa_2   0x00884c    program     static /projet/faziasep/FEE/Step_4/conception/PIC/PIC_V4_OK/src/myfunc/maths.c
                   __pa_2   0x00264e    program     static /projet/faziasep/FEE/Step_4/conception/PIC/PIC_V4_OK/src/functions.c
                   __pa_2   0x006f9e    program     static /projet/faziasep/FEE/Step_4/conception/PIC/PIC_V4_OK/src/myfunc/Tsensor.c
                   __pa_2   0x008f3c    program     static /projet/faziasep/FEE/Step_4/conception/PIC/PIC_V4_OK/src/myfunc/spi.c
                  __pa_20   0x00271e    program     static /projet/faziasep/FEE/Step_4/conception/PIC/PIC_V4_OK/src/functions.c
                  __pa_20   0x008946    program     static /projet/faziasep/FEE/Step_4/conception/PIC/PIC_V4_OK/src/myfunc/maths.c
                  __pa_20   0x008342    program     static /projet/faziasep/FEE/Step_4/conception/PIC/PIC_V4_OK/src/myfunc/ads8332.c
                  __pa_20   0x0056a2    program     static /projet/faziasep/FEE/Step_4/conception/PIC/PIC_V4_OK/src/myfunc/display.c
                  __pa_20   0x006058    program     static /projet/faziasep/FEE/Step_4/conception/PIC/PIC_V4_OK/src/setup.c
                  __pa_20   0x0068bc    program     static /projet/faziasep/FEE/Step_4/conception/PIC/PIC_V4_OK/src/myfunc/dac8568.c
                  __pa_20   0x00774a    program     static /projet/faziasep/FEE/Step_4/conception/PIC/PIC_V4_OK/src/myfunc/analog.c
                  __pa_20   0x004ac0    program     static /projet/faziasep/FEE/Step_4/conception/PIC/PIC_V4_OK/src/main.c
                  __pa_20   0x0070c8    program     static /projet/faziasep/FEE/Step_4/conception/PIC/PIC_V4_OK/src/myfunc/Tsensor.c
                  __pa_21   0x002724    program     static /projet/faziasep/FEE/Step_4/conception/PIC/PIC_V4_OK/src/functions.c
                  __pa_21   0x004ac8    program     static /projet/faziasep/FEE/Step_4/conception/PIC/PIC_V4_OK/src/main.c
                  __pa_21   0x0056b4    program     static /projet/faziasep/FEE/Step_4/conception/PIC/PIC_V4_OK/src/myfunc/display.c
                  __pa_21   0x0070d0    program     static /projet/faziasep/FEE/Step_4/conception/PIC/PIC_V4_OK/src/myfunc/Tsensor.c
                  __pa_21   0x00834e    program     static /projet/faziasep/FEE/Step_4/conception/PIC/PIC_V4_OK/src/myfunc/ads8332.c
                  __pa_21   0x00606e    program     static /projet/faziasep/FEE/Step_4/conception/PIC/PIC_V4_OK/src/setup.c
                  __pa_21   0x007754    program     static /projet/faziasep/FEE/Step_4/conception/PIC/PIC_V4_OK/src/myfunc/analog.c
                  __pa_21   0x0068ca    program     static /projet/faziasep/FEE/Step_4/conception/PIC/PIC_V4_OK/src/myfunc/dac8568.c
                  __pa_22   0x00607e    program     static /projet/faziasep/FEE/Step_4/conception/PIC/PIC_V4_OK/src/setup.c
                  __pa_22   0x0070de    program     static /projet/faziasep/FEE/Step_4/conception/PIC/PIC_V4_OK/src/myfunc/Tsensor.c
                  __pa_22   0x00775e    program     static /projet/faziasep/FEE/Step_4/conception/PIC/PIC_V4_OK/src/myfunc/analog.c
                  __pa_22   0x00835c    program     static /projet/faziasep/FEE/Step_4/conception/PIC/PIC_V4_OK/src/myfunc/ads8332.c
                  __pa_22   0x004ada    program     static /projet/faziasep/FEE/Step_4/conception/PIC/PIC_V4_OK/src/main.c
                  __pa_22   0x0068e4    program     static /projet/faziasep/FEE/Step_4/conception/PIC/PIC_V4_OK/src/myfunc/dac8568.c
                  __pa_22   0x002734    program     static /projet/faziasep/FEE/Step_4/conception/PIC/PIC_V4_OK/src/functions.c
                  __pa_22   0x0056c6    program     static /projet/faziasep/FEE/Step_4/conception/PIC/PIC_V4_OK/src/myfunc/display.c
                  __pa_23   0x0056d0    program     static /projet/faziasep/FEE/Step_4/conception/PIC/PIC_V4_OK/src/myfunc/display.c
                  __pa_23   0x00608c    program     static /projet/faziasep/FEE/Step_4/conception/PIC/PIC_V4_OK/src/setup.c
                  __pa_23   0x00776c    program     static /projet/faziasep/FEE/Step_4/conception/PIC/PIC_V4_OK/src/myfunc/analog.c
                  __pa_23   0x0070ec    program     static /projet/faziasep/FEE/Step_4/conception/PIC/PIC_V4_OK/src/myfunc/Tsensor.c
                  __pa_23   0x004ae6    program     static /projet/faziasep/FEE/Step_4/conception/PIC/PIC_V4_OK/src/main.c
                  __pa_23   0x006904    program     static /projet/faziasep/FEE/Step_4/conception/PIC/PIC_V4_OK/src/myfunc/dac8568.c
                  __pa_23   0x008368    program     static /projet/faziasep/FEE/Step_4/conception/PIC/PIC_V4_OK/src/myfunc/ads8332.c
                  __pa_23   0x002752    program     static /projet/faziasep/FEE/Step_4/conception/PIC/PIC_V4_OK/src/functions.c
                  __pa_24   0x0070fa    program     static /projet/faziasep/FEE/Step_4/conception/PIC/PIC_V4_OK/src/myfunc/Tsensor.c
                  __pa_24   0x004af2    program     static /projet/faziasep/FEE/Step_4/conception/PIC/PIC_V4_OK/src/main.c
                  __pa_24   0x007790    program     static /projet/faziasep/FEE/Step_4/conception/PIC/PIC_V4_OK/src/myfunc/analog.c
                  __pa_24   0x0056e0    program     static /projet/faziasep/FEE/Step_4/conception/PIC/PIC_V4_OK/src/myfunc/display.c
                  __pa_24   0x006912    program     static /projet/faziasep/FEE/Step_4/conception/PIC/PIC_V4_OK/src/myfunc/dac8568.c
                  __pa_24   0x00275c    program     static /projet/faziasep/FEE/Step_4/conception/PIC/PIC_V4_OK/src/functions.c
                  __pa_24   0x00609a    program     static /projet/faziasep/FEE/Step_4/conception/PIC/PIC_V4_OK/src/setup.c
                  __pa_24   0x008372    program     static /projet/faziasep/FEE/Step_4/conception/PIC/PIC_V4_OK/src/myfunc/ads8332.c
                  __pa_25   0x0056f0    program     static /projet/faziasep/FEE/Step_4/conception/PIC/PIC_V4_OK/src/myfunc/display.c
                  __pa_25   0x004afc    program     static /projet/faziasep/FEE/Step_4/conception/PIC/PIC_V4_OK/src/main.c
                  __pa_25   0x00276a    program     static /projet/faziasep/FEE/Step_4/conception/PIC/PIC_V4_OK/src/functions.c
                  __pa_25   0x006920    program     static /projet/faziasep/FEE/Step_4/conception/PIC/PIC_V4_OK/src/myfunc/dac8568.c
                  __pa_25   0x00779e    program     static /projet/faziasep/FEE/Step_4/conception/PIC/PIC_V4_OK/src/myfunc/analog.c
                  __pa_25   0x0060a8    program     static /projet/faziasep/FEE/Step_4/conception/PIC/PIC_V4_OK/src/setup.c
                  __pa_25   0x00837c    program     static /projet/faziasep/FEE/Step_4/conception/PIC/PIC_V4_OK/src/myfunc/ads8332.c
                  __pa_25   0x007108    program     static /projet/faziasep/FEE/Step_4/conception/PIC/PIC_V4_OK/src/myfunc/Tsensor.c
                  __pa_26   0x002778    program     static /projet/faziasep/FEE/Step_4/conception/PIC/PIC_V4_OK/src/functions.c
                  __pa_26   0x006930    program     static /projet/faziasep/FEE/Step_4/conception/PIC/PIC_V4_OK/src/myfunc/dac8568.c
                  __pa_26   0x00838e    program     static /projet/faziasep/FEE/Step_4/conception/PIC/PIC_V4_OK/src/myfunc/ads8332.c
                  __pa_26   0x0060b6    program     static /projet/faziasep/FEE/Step_4/conception/PIC/PIC_V4_OK/src/setup.c
                  __pa_26   0x00711e    program     static /projet/faziasep/FEE/Step_4/conception/PIC/PIC_V4_OK/src/myfunc/Tsensor.c
                  __pa_26   0x004b06    program     static /projet/faziasep/FEE/Step_4/conception/PIC/PIC_V4_OK/src/main.c
                  __pa_26   0x0077aa    program     static /projet/faziasep/FEE/Step_4/conception/PIC/PIC_V4_OK/src/myfunc/analog.c
                  __pa_26   0x0056fe    program     static /projet/faziasep/FEE/Step_4/conception/PIC/PIC_V4_OK/src/myfunc/display.c
                  __pa_27   0x0060c0    program     static /projet/faziasep/FEE/Step_4/conception/PIC/PIC_V4_OK/src/setup.c
                  __pa_27   0x007124    program     static /projet/faziasep/FEE/Step_4/conception/PIC/PIC_V4_OK/src/myfunc/Tsensor.c
                  __pa_27   0x00278a    program     static /projet/faziasep/FEE/Step_4/conception/PIC/PIC_V4_OK/src/functions.c
                  __pa_27   0x004b14    program     static /projet/faziasep/FEE/Step_4/conception/PIC/PIC_V4_OK/src/main.c
                  __pa_27   0x0077bc    program     static /projet/faziasep/FEE/Step_4/conception/PIC/PIC_V4_OK/src/myfunc/analog.c
                  __pa_27   0x00570c    program     static /projet/faziasep/FEE/Step_4/conception/PIC/PIC_V4_OK/src/myfunc/display.c
                  __pa_27   0x00839a    program     static /projet/faziasep/FEE/Step_4/conception/PIC/PIC_V4_OK/src/myfunc/ads8332.c
                  __pa_27   0x00693e    program     static /projet/faziasep/FEE/Step_4/conception/PIC/PIC_V4_OK/src/myfunc/dac8568.c
                  __pa_28   0x004b1e    program     static /projet/faziasep/FEE/Step_4/conception/PIC/PIC_V4_OK/src/main.c
                  __pa_28   0x0077ca    program     static /projet/faziasep/FEE/Step_4/conception/PIC/PIC_V4_OK/src/myfunc/analog.c
                  __pa_28   0x00571a    program     static /projet/faziasep/FEE/Step_4/conception/PIC/PIC_V4_OK/src/myfunc/display.c
                  __pa_28   0x007132    program     static /projet/faziasep/FEE/Step_4/conception/PIC/PIC_V4_OK/src/myfunc/Tsensor.c
                  __pa_28   0x0083a2    program     static /projet/faziasep/FEE/Step_4/conception/PIC/PIC_V4_OK/src/myfunc/ads8332.c
                  __pa_28   0x006948    program     static /projet/faziasep/FEE/Step_4/conception/PIC/PIC_V4_OK/src/myfunc/dac8568.c
                  __pa_28   0x0060d4    program     static /projet/faziasep/FEE/Step_4/conception/PIC/PIC_V4_OK/src/setup.c
                  __pa_28   0x002794    program     static /projet/faziasep/FEE/Step_4/conception/PIC/PIC_V4_OK/src/functions.c
                  __pa_29   0x004b24    program     static /projet/faziasep/FEE/Step_4/conception/PIC/PIC_V4_OK/src/main.c
                  __pa_29   0x00713a    program     static /projet/faziasep/FEE/Step_4/conception/PIC/PIC_V4_OK/src/myfunc/Tsensor.c
                  __pa_29   0x005728    program     static /projet/faziasep/FEE/Step_4/conception/PIC/PIC_V4_OK/src/myfunc/display.c
                  __pa_29   0x0027a0    program     static /projet/faziasep/FEE/Step_4/conception/PIC/PIC_V4_OK/src/functions.c
                  __pa_29   0x006952    program     static /projet/faziasep/FEE/Step_4/conception/PIC/PIC_V4_OK/src/myfunc/dac8568.c
                  __pa_29   0x0060de    program     static /projet/faziasep/FEE/Step_4/conception/PIC/PIC_V4_OK/src/setup.c
                  __pa_29   0x0083b0    program     static /projet/faziasep/FEE/Step_4/conception/PIC/PIC_V4_OK/src/myfunc/ads8332.c
                  __pa_29   0x0077d8    program     static /projet/faziasep/FEE/Step_4/conception/PIC/PIC_V4_OK/src/myfunc/analog.c
                   __pa_3   0x00885e    program     static /projet/faziasep/FEE/Step_4/conception/PIC/PIC_V4_OK/src/myfunc/maths.c
                   __pa_3   0x006fd8    program     static /projet/faziasep/FEE/Step_4/conception/PIC/PIC_V4_OK/src/myfunc/Tsensor.c
                   __pa_3   0x005f54    program     static /projet/faziasep/FEE/Step_4/conception/PIC/PIC_V4_OK/src/setup.c
                   __pa_3   0x002658    program     static /projet/faziasep/FEE/Step_4/conception/PIC/PIC_V4_OK/src/functions.c
                   __pa_3   0x009760    program     static /projet/faziasep/FEE/Step_4/conception/PIC/PIC_V4_OK/src/myfunc/wr_eeprom.c
                   __pa_3   0x008f48    program     static /projet/faziasep/FEE/Step_4/conception/PIC/PIC_V4_OK/src/myfunc/spi.c
                   __pa_3   0x0091ea    program     static /projet/faziasep/FEE/Step_4/conception/PIC/PIC_V4_OK/src/frame.c
                   __pa_3   0x00553c    program     static /projet/faziasep/FEE/Step_4/conception/PIC/PIC_V4_OK/src/myfunc/display.c
                   __pa_3   0x004982    program     static /projet/faziasep/FEE/Step_4/conception/PIC/PIC_V4_OK/src/main.c
                   __pa_3   0x008bc6    program     static /projet/faziasep/FEE/Step_4/conception/PIC/PIC_V4_OK/src/cbuffer.c
                   __pa_3   0x007604    program     static /projet/faziasep/FEE/Step_4/conception/PIC/PIC_V4_OK/src/myfunc/analog.c
                   __pa_3   0x0094b6    program     static /projet/faziasep/FEE/Step_4/conception/PIC/PIC_V4_OK/src/uartbuf.c
                   __pa_3   0x0081e6    program     static /projet/faziasep/FEE/Step_4/conception/PIC/PIC_V4_OK/src/myfunc/ads8332.c
                   __pa_3   0x006760    program     static /projet/faziasep/FEE/Step_4/conception/PIC/PIC_V4_OK/src/myfunc/dac8568.c
                  __pa_30   0x0083b8    program     static /projet/faziasep/FEE/Step_4/conception/PIC/PIC_V4_OK/src/myfunc/ads8332.c
                  __pa_30   0x005736    program     static /projet/faziasep/FEE/Step_4/conception/PIC/PIC_V4_OK/src/myfunc/display.c
                  __pa_30   0x004b3e    program     static /projet/faziasep/FEE/Step_4/conception/PIC/PIC_V4_OK/src/main.c
                  __pa_30   0x006964    program     static /projet/faziasep/FEE/Step_4/conception/PIC/PIC_V4_OK/src/myfunc/dac8568.c
                  __pa_30   0x007144    program     static /projet/faziasep/FEE/Step_4/conception/PIC/PIC_V4_OK/src/myfunc/Tsensor.c
                  __pa_30   0x0060e8    program     static /projet/faziasep/FEE/Step_4/conception/PIC/PIC_V4_OK/src/setup.c
                  __pa_30   0x0027b6    program     static /projet/faziasep/FEE/Step_4/conception/PIC/PIC_V4_OK/src/functions.c
                  __pa_30   0x0077e6    program     static /projet/faziasep/FEE/Step_4/conception/PIC/PIC_V4_OK/src/myfunc/analog.c
                  __pa_31   0x005744    program     static /projet/faziasep/FEE/Step_4/conception/PIC/PIC_V4_OK/src/myfunc/display.c
                  __pa_31   0x007152    program     static /projet/faziasep/FEE/Step_4/conception/PIC/PIC_V4_OK/src/myfunc/Tsensor.c
                  __pa_31   0x006974    program     static /projet/faziasep/FEE/Step_4/conception/PIC/PIC_V4_OK/src/myfunc/dac8568.c
                  __pa_31   0x004b52    program     static /projet/faziasep/FEE/Step_4/conception/PIC/PIC_V4_OK/src/main.c
                  __pa_31   0x0060f2    program     static /projet/faziasep/FEE/Step_4/conception/PIC/PIC_V4_OK/src/setup.c
                  __pa_31   0x0027c4    program     static /projet/faziasep/FEE/Step_4/conception/PIC/PIC_V4_OK/src/functions.c
                  __pa_31   0x0077f4    program     static /projet/faziasep/FEE/Step_4/conception/PIC/PIC_V4_OK/src/myfunc/analog.c
                  __pa_32   0x005752    program     static /projet/faziasep/FEE/Step_4/conception/PIC/PIC_V4_OK/src/myfunc/display.c
                  __pa_32   0x007802    program     static /projet/faziasep/FEE/Step_4/conception/PIC/PIC_V4_OK/src/myfunc/analog.c
                  __pa_32   0x0027d4    program     static /projet/faziasep/FEE/Step_4/conception/PIC/PIC_V4_OK/src/functions.c
                  __pa_32   0x0060fc    program     static /projet/faziasep/FEE/Step_4/conception/PIC/PIC_V4_OK/src/setup.c
                  __pa_32   0x004b64    program     static /projet/faziasep/FEE/Step_4/conception/PIC/PIC_V4_OK/src/main.c
                  __pa_32   0x006980    program     static /projet/faziasep/FEE/Step_4/conception/PIC/PIC_V4_OK/src/myfunc/dac8568.c
                  __pa_32   0x007160    program     static /projet/faziasep/FEE/Step_4/conception/PIC/PIC_V4_OK/src/myfunc/Tsensor.c
                  __pa_33   0x00575c    program     static /projet/faziasep/FEE/Step_4/conception/PIC/PIC_V4_OK/src/myfunc/display.c
                  __pa_33   0x0027e4    program     static /projet/faziasep/FEE/Step_4/conception/PIC/PIC_V4_OK/src/functions.c
                  __pa_33   0x00716e    program     static /projet/faziasep/FEE/Step_4/conception/PIC/PIC_V4_OK/src/myfunc/Tsensor.c
                  __pa_33   0x00610a    program     static /projet/faziasep/FEE/Step_4/conception/PIC/PIC_V4_OK/src/setup.c
                  __pa_33   0x007810    program     static /projet/faziasep/FEE/Step_4/conception/PIC/PIC_V4_OK/src/myfunc/analog.c
                  __pa_33   0x00698c    program     static /projet/faziasep/FEE/Step_4/conception/PIC/PIC_V4_OK/src/myfunc/dac8568.c
                  __pa_33   0x004b76    program     static /projet/faziasep/FEE/Step_4/conception/PIC/PIC_V4_OK/src/main.c
                  __pa_34   0x005760    program     static /projet/faziasep/FEE/Step_4/conception/PIC/PIC_V4_OK/src/myfunc/display.c
                  __pa_34   0x006118    program     static /projet/faziasep/FEE/Step_4/conception/PIC/PIC_V4_OK/src/setup.c
                  __pa_34   0x00699a    program     static /projet/faziasep/FEE/Step_4/conception/PIC/PIC_V4_OK/src/myfunc/dac8568.c
                  __pa_34   0x007820    program     static /projet/faziasep/FEE/Step_4/conception/PIC/PIC_V4_OK/src/myfunc/analog.c
                  __pa_34   0x004b80    program     static /projet/faziasep/FEE/Step_4/conception/PIC/PIC_V4_OK/src/main.c
                  __pa_34   0x0027f2    program     static /projet/faziasep/FEE/Step_4/conception/PIC/PIC_V4_OK/src/functions.c
                  __pa_34   0x00717c    program     static /projet/faziasep/FEE/Step_4/conception/PIC/PIC_V4_OK/src/myfunc/Tsensor.c
                  __pa_35   0x00576a    program     static /projet/faziasep/FEE/Step_4/conception/PIC/PIC_V4_OK/src/myfunc/display.c
                  __pa_35   0x006122    program     static /projet/faziasep/FEE/Step_4/conception/PIC/PIC_V4_OK/src/setup.c
                  __pa_35   0x00782c    program     static /projet/faziasep/FEE/Step_4/conception/PIC/PIC_V4_OK/src/myfunc/analog.c
                  __pa_35   0x004b8a    program     static /projet/faziasep/FEE/Step_4/conception/PIC/PIC_V4_OK/src/main.c
                  __pa_35   0x007184    program     static /projet/faziasep/FEE/Step_4/conception/PIC/PIC_V4_OK/src/myfunc/Tsensor.c
                  __pa_35   0x0069a6    program     static /projet/faziasep/FEE/Step_4/conception/PIC/PIC_V4_OK/src/myfunc/dac8568.c
                  __pa_35   0x0027fc    program     static /projet/faziasep/FEE/Step_4/conception/PIC/PIC_V4_OK/src/functions.c
                  __pa_36   0x007834    program     static /projet/faziasep/FEE/Step_4/conception/PIC/PIC_V4_OK/src/myfunc/analog.c
                  __pa_36   0x00578c    program     static /projet/faziasep/FEE/Step_4/conception/PIC/PIC_V4_OK/src/myfunc/display.c
                  __pa_36   0x0069b4    program     static /projet/faziasep/FEE/Step_4/conception/PIC/PIC_V4_OK/src/myfunc/dac8568.c
                  __pa_36   0x006136    program     static /projet/faziasep/FEE/Step_4/conception/PIC/PIC_V4_OK/src/setup.c
                  __pa_36   0x004b94    program     static /projet/faziasep/FEE/Step_4/conception/PIC/PIC_V4_OK/src/main.c
                  __pa_36   0x002806    program     static /projet/faziasep/FEE/Step_4/conception/PIC/PIC_V4_OK/src/functions.c
                  __pa_36   0x00718e    program     static /projet/faziasep/FEE/Step_4/conception/PIC/PIC_V4_OK/src/myfunc/Tsensor.c
                  __pa_37   0x005796    program     static /projet/faziasep/FEE/Step_4/conception/PIC/PIC_V4_OK/src/myfunc/display.c
                  __pa_37   0x007844    program     static /projet/faziasep/FEE/Step_4/conception/PIC/PIC_V4_OK/src/myfunc/analog.c
                  __pa_37   0x00613e    program     static /projet/faziasep/FEE/Step_4/conception/PIC/PIC_V4_OK/src/setup.c
                  __pa_37   0x0069c2    program     static /projet/faziasep/FEE/Step_4/conception/PIC/PIC_V4_OK/src/myfunc/dac8568.c
                  __pa_37   0x002820    program     static /projet/faziasep/FEE/Step_4/conception/PIC/PIC_V4_OK/src/functions.c
                  __pa_37   0x004b9e    program     static /projet/faziasep/FEE/Step_4/conception/PIC/PIC_V4_OK/src/main.c
                  __pa_38   0x004ba6    program     static /projet/faziasep/FEE/Step_4/conception/PIC/PIC_V4_OK/src/main.c
                  __pa_38   0x0069d0    program     static /projet/faziasep/FEE/Step_4/conception/PIC/PIC_V4_OK/src/myfunc/dac8568.c
                  __pa_38   0x00282c    program     static /projet/faziasep/FEE/Step_4/conception/PIC/PIC_V4_OK/src/functions.c
                  __pa_38   0x006148    program     static /projet/faziasep/FEE/Step_4/conception/PIC/PIC_V4_OK/src/setup.c
                  __pa_38   0x007850    program     static /projet/faziasep/FEE/Step_4/conception/PIC/PIC_V4_OK/src/myfunc/analog.c
                  __pa_38   0x0057a6    program     static /projet/faziasep/FEE/Step_4/conception/PIC/PIC_V4_OK/src/myfunc/display.c
                  __pa_39   0x0069d8    program     static /projet/faziasep/FEE/Step_4/conception/PIC/PIC_V4_OK/src/myfunc/dac8568.c
                  __pa_39   0x00615e    program     static /projet/faziasep/FEE/Step_4/conception/PIC/PIC_V4_OK/src/setup.c
                  __pa_39   0x00283a    program     static /projet/faziasep/FEE/Step_4/conception/PIC/PIC_V4_OK/src/functions.c
                  __pa_39   0x0057b4    program     static /projet/faziasep/FEE/Step_4/conception/PIC/PIC_V4_OK/src/myfunc/display.c
                  __pa_39   0x00785e    program     static /projet/faziasep/FEE/Step_4/conception/PIC/PIC_V4_OK/src/myfunc/analog.c
                   __pa_4   0x005f5e    program     static /projet/faziasep/FEE/Step_4/conception/PIC/PIC_V4_OK/src/setup.c
                   __pa_4   0x00887c    program     static /projet/faziasep/FEE/Step_4/conception/PIC/PIC_V4_OK/src/myfunc/maths.c
                   __pa_4   0x005562    program     static /projet/faziasep/FEE/Step_4/conception/PIC/PIC_V4_OK/src/myfunc/display.c
                   __pa_4   0x008bd2    program     static /projet/faziasep/FEE/Step_4/conception/PIC/PIC_V4_OK/src/cbuffer.c
                   __pa_4   0x00977a    program     static /projet/faziasep/FEE/Step_4/conception/PIC/PIC_V4_OK/src/myfunc/wr_eeprom.c
                   __pa_4   0x007632    program     static /projet/faziasep/FEE/Step_4/conception/PIC/PIC_V4_OK/src/myfunc/analog.c
                   __pa_4   0x0094c8    program     static /projet/faziasep/FEE/Step_4/conception/PIC/PIC_V4_OK/src/uartbuf.c
                   __pa_4   0x00677c    program     static /projet/faziasep/FEE/Step_4/conception/PIC/PIC_V4_OK/src/myfunc/dac8568.c
                   __pa_4   0x006fde    program     static /projet/faziasep/FEE/Step_4/conception/PIC/PIC_V4_OK/src/myfunc/Tsensor.c
                   __pa_4   0x00265e    program     static /projet/faziasep/FEE/Step_4/conception/PIC/PIC_V4_OK/src/functions.c
                   __pa_4   0x0091f6    program     static /projet/faziasep/FEE/Step_4/conception/PIC/PIC_V4_OK/src/frame.c
                   __pa_4   0x00499e    program     static /projet/faziasep/FEE/Step_4/conception/PIC/PIC_V4_OK/src/main.c
                   __pa_4   0x008200    program     static /projet/faziasep/FEE/Step_4/conception/PIC/PIC_V4_OK/src/myfunc/ads8332.c
                   __pa_4   0x008f56    program     static /projet/faziasep/FEE/Step_4/conception/PIC/PIC_V4_OK/src/myfunc/spi.c
                  __pa_40   0x0069e0    program     static /projet/faziasep/FEE/Step_4/conception/PIC/PIC_V4_OK/src/myfunc/dac8568.c
                  __pa_40   0x006168    program     static /projet/faziasep/FEE/Step_4/conception/PIC/PIC_V4_OK/src/setup.c
                  __pa_40   0x0057c4    program     static /projet/faziasep/FEE/Step_4/conception/PIC/PIC_V4_OK/src/myfunc/display.c
                  __pa_40   0x002848    program     static /projet/faziasep/FEE/Step_4/conception/PIC/PIC_V4_OK/src/functions.c
                  __pa_41   0x006172    program     static /projet/faziasep/FEE/Step_4/conception/PIC/PIC_V4_OK/src/setup.c
                  __pa_41   0x002856    program     static /projet/faziasep/FEE/Step_4/conception/PIC/PIC_V4_OK/src/functions.c
                  __pa_41   0x0057ce    program     static /projet/faziasep/FEE/Step_4/conception/PIC/PIC_V4_OK/src/myfunc/display.c
                  __pa_41   0x0069e8    program     static /projet/faziasep/FEE/Step_4/conception/PIC/PIC_V4_OK/src/myfunc/dac8568.c
                  __pa_42   0x002864    program     static /projet/faziasep/FEE/Step_4/conception/PIC/PIC_V4_OK/src/functions.c
                  __pa_42   0x0057d6    program     static /projet/faziasep/FEE/Step_4/conception/PIC/PIC_V4_OK/src/myfunc/display.c
                  __pa_42   0x006180    program     static /projet/faziasep/FEE/Step_4/conception/PIC/PIC_V4_OK/src/setup.c
                  __pa_43   0x002872    program     static /projet/faziasep/FEE/Step_4/conception/PIC/PIC_V4_OK/src/functions.c
                  __pa_43   0x006186    program     static /projet/faziasep/FEE/Step_4/conception/PIC/PIC_V4_OK/src/setup.c
                  __pa_43   0x0057dc    program     static /projet/faziasep/FEE/Step_4/conception/PIC/PIC_V4_OK/src/myfunc/display.c
                  __pa_44   0x00618c    program     static /projet/faziasep/FEE/Step_4/conception/PIC/PIC_V4_OK/src/setup.c
                  __pa_44   0x0057e4    program     static /projet/faziasep/FEE/Step_4/conception/PIC/PIC_V4_OK/src/myfunc/display.c
                  __pa_44   0x002878    program     static /projet/faziasep/FEE/Step_4/conception/PIC/PIC_V4_OK/src/functions.c
                  __pa_45   0x00288a    program     static /projet/faziasep/FEE/Step_4/conception/PIC/PIC_V4_OK/src/functions.c
                  __pa_45   0x006194    program     static /projet/faziasep/FEE/Step_4/conception/PIC/PIC_V4_OK/src/setup.c
                  __pa_46   0x002894    program     static /projet/faziasep/FEE/Step_4/conception/PIC/PIC_V4_OK/src/functions.c
                  __pa_46   0x0061a2    program     static /projet/faziasep/FEE/Step_4/conception/PIC/PIC_V4_OK/src/setup.c
                  __pa_47   0x00289e    program     static /projet/faziasep/FEE/Step_4/conception/PIC/PIC_V4_OK/src/functions.c
                  __pa_47   0x0061b0    program     static /projet/faziasep/FEE/Step_4/conception/PIC/PIC_V4_OK/src/setup.c
                  __pa_48   0x0028aa    program     static /projet/faziasep/FEE/Step_4/conception/PIC/PIC_V4_OK/src/functions.c
                  __pa_48   0x0061bc    program     static /projet/faziasep/FEE/Step_4/conception/PIC/PIC_V4_OK/src/setup.c
                  __pa_49   0x0028b8    program     static /projet/faziasep/FEE/Step_4/conception/PIC/PIC_V4_OK/src/functions.c
                  __pa_49   0x0061ca    program     static /projet/faziasep/FEE/Step_4/conception/PIC/PIC_V4_OK/src/setup.c
                   __pa_5   0x00557c    program     static /projet/faziasep/FEE/Step_4/conception/PIC/PIC_V4_OK/src/myfunc/display.c
                   __pa_5   0x008be0    program     static /projet/faziasep/FEE/Step_4/conception/PIC/PIC_V4_OK/src/cbuffer.c
                   __pa_5   0x007640    program     static /projet/faziasep/FEE/Step_4/conception/PIC/PIC_V4_OK/src/myfunc/analog.c
                   __pa_5   0x00978a    program     static /projet/faziasep/FEE/Step_4/conception/PIC/PIC_V4_OK/src/myfunc/wr_eeprom.c
                   __pa_5   0x00266a    program     static /projet/faziasep/FEE/Step_4/conception/PIC/PIC_V4_OK/src/functions.c
                   __pa_5   0x008f62    program     static /projet/faziasep/FEE/Step_4/conception/PIC/PIC_V4_OK/src/myfunc/spi.c
                   __pa_5   0x00888e    program     static /projet/faziasep/FEE/Step_4/conception/PIC/PIC_V4_OK/src/myfunc/maths.c
                   __pa_5   0x005f76    program     static /projet/faziasep/FEE/Step_4/conception/PIC/PIC_V4_OK/src/setup.c
                   __pa_5   0x0094d4    program     static /projet/faziasep/FEE/Step_4/conception/PIC/PIC_V4_OK/src/uartbuf.c
                   __pa_5   0x006fec    program     static /projet/faziasep/FEE/Step_4/conception/PIC/PIC_V4_OK/src/myfunc/Tsensor.c
                   __pa_5   0x008218    program     static /projet/faziasep/FEE/Step_4/conception/PIC/PIC_V4_OK/src/myfunc/ads8332.c
                   __pa_5   0x006796    program     static /projet/faziasep/FEE/Step_4/conception/PIC/PIC_V4_OK/src/myfunc/dac8568.c
                   __pa_5   0x0049b0    program     static /projet/faziasep/FEE/Step_4/conception/PIC/PIC_V4_OK/src/main.c
                   __pa_5   0x00920c    program     static /projet/faziasep/FEE/Step_4/conception/PIC/PIC_V4_OK/src/frame.c
                  __pa_50   0x0061d4    program     static /projet/faziasep/FEE/Step_4/conception/PIC/PIC_V4_OK/src/setup.c
                  __pa_50   0x0028c0    program     static /projet/faziasep/FEE/Step_4/conception/PIC/PIC_V4_OK/src/functions.c
                  __pa_51   0x0061dc    program     static /projet/faziasep/FEE/Step_4/conception/PIC/PIC_V4_OK/src/setup.c
                  __pa_51   0x0028c8    program     static /projet/faziasep/FEE/Step_4/conception/PIC/PIC_V4_OK/src/functions.c
                  __pa_52   0x0061e8    program     static /projet/faziasep/FEE/Step_4/conception/PIC/PIC_V4_OK/src/setup.c
                  __pa_52   0x0028d0    program     static /projet/faziasep/FEE/Step_4/conception/PIC/PIC_V4_OK/src/functions.c
                  __pa_53   0x0061f6    program     static /projet/faziasep/FEE/Step_4/conception/PIC/PIC_V4_OK/src/setup.c
                  __pa_53   0x0028dc    program     static /projet/faziasep/FEE/Step_4/conception/PIC/PIC_V4_OK/src/functions.c
                  __pa_54   0x0061fe    program     static /projet/faziasep/FEE/Step_4/conception/PIC/PIC_V4_OK/src/setup.c
                  __pa_54   0x0028ee    program     static /projet/faziasep/FEE/Step_4/conception/PIC/PIC_V4_OK/src/functions.c
                  __pa_55   0x002900    program     static /projet/faziasep/FEE/Step_4/conception/PIC/PIC_V4_OK/src/functions.c
                  __pa_56   0x002912    program     static /projet/faziasep/FEE/Step_4/conception/PIC/PIC_V4_OK/src/functions.c
                  __pa_57   0x002924    program     static /projet/faziasep/FEE/Step_4/conception/PIC/PIC_V4_OK/src/functions.c
                  __pa_58   0x00292e    program     static /projet/faziasep/FEE/Step_4/conception/PIC/PIC_V4_OK/src/functions.c
                  __pa_59   0x002938    program     static /projet/faziasep/FEE/Step_4/conception/PIC/PIC_V4_OK/src/functions.c
                   __pa_6   0x009798    program     static /projet/faziasep/FEE/Step_4/conception/PIC/PIC_V4_OK/src/myfunc/wr_eeprom.c
                   __pa_6   0x0088aa    program     static /projet/faziasep/FEE/Step_4/conception/PIC/PIC_V4_OK/src/myfunc/maths.c
                   __pa_6   0x0067a8    program     static /projet/faziasep/FEE/Step_4/conception/PIC/PIC_V4_OK/src/myfunc/dac8568.c
                   __pa_6   0x006ffe    program     static /projet/faziasep/FEE/Step_4/conception/PIC/PIC_V4_OK/src/myfunc/Tsensor.c
                   __pa_6   0x008f72    program     static /projet/faziasep/FEE/Step_4/conception/PIC/PIC_V4_OK/src/myfunc/spi.c
                   __pa_6   0x009222    program     static /projet/faziasep/FEE/Step_4/conception/PIC/PIC_V4_OK/src/frame.c
                   __pa_6   0x008224    program     static /projet/faziasep/FEE/Step_4/conception/PIC/PIC_V4_OK/src/myfunc/ads8332.c
                   __pa_6   0x002676    program     static /projet/faziasep/FEE/Step_4/conception/PIC/PIC_V4_OK/src/functions.c
                   __pa_6   0x007652    program     static /projet/faziasep/FEE/Step_4/conception/PIC/PIC_V4_OK/src/myfunc/analog.c
                   __pa_6   0x0094e6    program     static /projet/faziasep/FEE/Step_4/conception/PIC/PIC_V4_OK/src/uartbuf.c
                   __pa_6   0x005592    program     static /projet/faziasep/FEE/Step_4/conception/PIC/PIC_V4_OK/src/myfunc/display.c
                   __pa_6   0x005f8a    program     static /projet/faziasep/FEE/Step_4/conception/PIC/PIC_V4_OK/src/setup.c
                   __pa_6   0x0049d2    program     static /projet/faziasep/FEE/Step_4/conception/PIC/PIC_V4_OK/src/main.c
                   __pa_6   0x008bec    program     static /projet/faziasep/FEE/Step_4/conception/PIC/PIC_V4_OK/src/cbuffer.c
                  __pa_60   0x00294a    program     static /projet/faziasep/FEE/Step_4/conception/PIC/PIC_V4_OK/src/functions.c
                  __pa_61   0x002956    program     static /projet/faziasep/FEE/Step_4/conception/PIC/PIC_V4_OK/src/functions.c
                  __pa_62   0x002962    program     static /projet/faziasep/FEE/Step_4/conception/PIC/PIC_V4_OK/src/functions.c
                  __pa_63   0x00296e    program     static /projet/faziasep/FEE/Step_4/conception/PIC/PIC_V4_OK/src/functions.c
                  __pa_64   0x00297a    program     static /projet/faziasep/FEE/Step_4/conception/PIC/PIC_V4_OK/src/functions.c
                  __pa_65   0x002980    program     static /projet/faziasep/FEE/Step_4/conception/PIC/PIC_V4_OK/src/functions.c
                  __pa_66   0x00298c    program     static /projet/faziasep/FEE/Step_4/conception/PIC/PIC_V4_OK/src/functions.c
                  __pa_67   0x002998    program     static /projet/faziasep/FEE/Step_4/conception/PIC/PIC_V4_OK/src/functions.c
                  __pa_68   0x0029a2    program     static /projet/faziasep/FEE/Step_4/conception/PIC/PIC_V4_OK/src/functions.c
                  __pa_69   0x0029ac    program     static /projet/faziasep/FEE/Step_4/conception/PIC/PIC_V4_OK/src/functions.c
                   __pa_7   0x0055a0    program     static /projet/faziasep/FEE/Step_4/conception/PIC/PIC_V4_OK/src/myfunc/display.c
                   __pa_7   0x008c00    program     static /projet/faziasep/FEE/Step_4/conception/PIC/PIC_V4_OK/src/cbuffer.c
                   __pa_7   0x008236    program     static /projet/faziasep/FEE/Step_4/conception/PIC/PIC_V4_OK/src/myfunc/ads8332.c
                   __pa_7   0x0094f4    program     static /projet/faziasep/FEE/Step_4/conception/PIC/PIC_V4_OK/src/uartbuf.c
                   __pa_7   0x0067b6    program     static /projet/faziasep/FEE/Step_4/conception/PIC/PIC_V4_OK/src/myfunc/dac8568.c
                   __pa_7   0x00765c    program     static /projet/faziasep/FEE/Step_4/conception/PIC/PIC_V4_OK/src/myfunc/analog.c
                   __pa_7   0x0088b6    program     static /projet/faziasep/FEE/Step_4/conception/PIC/PIC_V4_OK/src/myfunc/maths.c
                   __pa_7   0x009230    program     static /projet/faziasep/FEE/Step_4/conception/PIC/PIC_V4_OK/src/frame.c
                   __pa_7   0x005f92    program     static /projet/faziasep/FEE/Step_4/conception/PIC/PIC_V4_OK/src/setup.c
                   __pa_7   0x0097a6    program     static /projet/faziasep/FEE/Step_4/conception/PIC/PIC_V4_OK/src/myfunc/wr_eeprom.c
                   __pa_7   0x0049f8    program     static /projet/faziasep/FEE/Step_4/conception/PIC/PIC_V4_OK/src/main.c
                   __pa_7   0x007022    program     static /projet/faziasep/FEE/Step_4/conception/PIC/PIC_V4_OK/src/myfunc/Tsensor.c
                   __pa_7   0x008f76    program     static /projet/faziasep/FEE/Step_4/conception/PIC/PIC_V4_OK/src/myfunc/spi.c
                   __pa_7   0x00267c    program     static /projet/faziasep/FEE/Step_4/conception/PIC/PIC_V4_OK/src/functions.c
                  __pa_70   0x0029b6    program     static /projet/faziasep/FEE/Step_4/conception/PIC/PIC_V4_OK/src/functions.c
                  __pa_71   0x0029c0    program     static /projet/faziasep/FEE/Step_4/conception/PIC/PIC_V4_OK/src/functions.c
                  __pa_72   0x0029ca    program     static /projet/faziasep/FEE/Step_4/conception/PIC/PIC_V4_OK/src/functions.c
                  __pa_73   0x0029d4    program     static /projet/faziasep/FEE/Step_4/conception/PIC/PIC_V4_OK/src/functions.c
                  __pa_74   0x0029dc    program     static /projet/faziasep/FEE/Step_4/conception/PIC/PIC_V4_OK/src/functions.c
                  __pa_75   0x0029ec    program     static /projet/faziasep/FEE/Step_4/conception/PIC/PIC_V4_OK/src/functions.c
                  __pa_76   0x0029fa    program     static /projet/faziasep/FEE/Step_4/conception/PIC/PIC_V4_OK/src/functions.c
                  __pa_77   0x002a0a    program     static /projet/faziasep/FEE/Step_4/conception/PIC/PIC_V4_OK/src/functions.c
                  __pa_78   0x002a12    program     static /projet/faziasep/FEE/Step_4/conception/PIC/PIC_V4_OK/src/functions.c
                  __pa_79   0x002a20    program     static /projet/faziasep/FEE/Step_4/conception/PIC/PIC_V4_OK/src/functions.c
                   __pa_8   0x002688    program     static /projet/faziasep/FEE/Step_4/conception/PIC/PIC_V4_OK/src/functions.c
                   __pa_8   0x008f84    program     static /projet/faziasep/FEE/Step_4/conception/PIC/PIC_V4_OK/src/myfunc/spi.c
                   __pa_8   0x00823c    program     static /projet/faziasep/FEE/Step_4/conception/PIC/PIC_V4_OK/src/myfunc/ads8332.c
                   __pa_8   0x00702a    program     static /projet/faziasep/FEE/Step_4/conception/PIC/PIC_V4_OK/src/myfunc/Tsensor.c
                   __pa_8   0x009244    program     static /projet/faziasep/FEE/Step_4/conception/PIC/PIC_V4_OK/src/frame.c
                   __pa_8   0x004a0e    program     static /projet/faziasep/FEE/Step_4/conception/PIC/PIC_V4_OK/src/main.c
                   __pa_8   0x005f9e    program     static /projet/faziasep/FEE/Step_4/conception/PIC/PIC_V4_OK/src/setup.c
                   __pa_8   0x007668    program     static /projet/faziasep/FEE/Step_4/conception/PIC/PIC_V4_OK/src/myfunc/analog.c
                   __pa_8   0x0088c4    program     static /projet/faziasep/FEE/Step_4/conception/PIC/PIC_V4_OK/src/myfunc/maths.c
                   __pa_8   0x0055ae    program     static /projet/faziasep/FEE/Step_4/conception/PIC/PIC_V4_OK/src/myfunc/display.c
                   __pa_8   0x008c0e    program     static /projet/faziasep/FEE/Step_4/conception/PIC/PIC_V4_OK/src/cbuffer.c
                   __pa_8   0x0094fe    program     static /projet/faziasep/FEE/Step_4/conception/PIC/PIC_V4_OK/src/uartbuf.c
                   __pa_8   0x0067e4    program     static /projet/faziasep/FEE/Step_4/conception/PIC/PIC_V4_OK/src/myfunc/dac8568.c
                  __pa_80   0x002a2e    program     static /projet/faziasep/FEE/Step_4/conception/PIC/PIC_V4_OK/src/functions.c
                  __pa_81   0x002a3c    program     static /projet/faziasep/FEE/Step_4/conception/PIC/PIC_V4_OK/src/functions.c
                  __pa_82   0x002a4a    program     static /projet/faziasep/FEE/Step_4/conception/PIC/PIC_V4_OK/src/functions.c
                  __pa_83   0x002a58    program     static /projet/faziasep/FEE/Step_4/conception/PIC/PIC_V4_OK/src/functions.c
                  __pa_84   0x002a62    program     static /projet/faziasep/FEE/Step_4/conception/PIC/PIC_V4_OK/src/functions.c
                  __pa_85   0x002a6c    program     static /projet/faziasep/FEE/Step_4/conception/PIC/PIC_V4_OK/src/functions.c
                  __pa_86   0x002a76    program     static /projet/faziasep/FEE/Step_4/conception/PIC/PIC_V4_OK/src/functions.c
                  __pa_87   0x002a80    program     static /projet/faziasep/FEE/Step_4/conception/PIC/PIC_V4_OK/src/functions.c
                  __pa_88   0x002a88    program     static /projet/faziasep/FEE/Step_4/conception/PIC/PIC_V4_OK/src/functions.c
                  __pa_89   0x002a96    program     static /projet/faziasep/FEE/Step_4/conception/PIC/PIC_V4_OK/src/functions.c
                   __pa_9   0x00924e    program     static /projet/faziasep/FEE/Step_4/conception/PIC/PIC_V4_OK/src/frame.c
                   __pa_9   0x008252    program     static /projet/faziasep/FEE/Step_4/conception/PIC/PIC_V4_OK/src/myfunc/ads8332.c
                   __pa_9   0x00268e    program     static /projet/faziasep/FEE/Step_4/conception/PIC/PIC_V4_OK/src/functions.c
                   __pa_9   0x008f92    program     static /projet/faziasep/FEE/Step_4/conception/PIC/PIC_V4_OK/src/myfunc/spi.c
                   __pa_9   0x00703a    program     static /projet/faziasep/FEE/Step_4/conception/PIC/PIC_V4_OK/src/myfunc/Tsensor.c
                   __pa_9   0x004a18    program     static /projet/faziasep/FEE/Step_4/conception/PIC/PIC_V4_OK/src/main.c
                   __pa_9   0x005fb0    program     static /projet/faziasep/FEE/Step_4/conception/PIC/PIC_V4_OK/src/setup.c
                   __pa_9   0x00766e    program     static /projet/faziasep/FEE/Step_4/conception/PIC/PIC_V4_OK/src/myfunc/analog.c
                   __pa_9   0x0088d2    program     static /projet/faziasep/FEE/Step_4/conception/PIC/PIC_V4_OK/src/myfunc/maths.c
                   __pa_9   0x0055be    program     static /projet/faziasep/FEE/Step_4/conception/PIC/PIC_V4_OK/src/myfunc/display.c
                   __pa_9   0x008c38    program     static /projet/faziasep/FEE/Step_4/conception/PIC/PIC_V4_OK/src/cbuffer.c
                   __pa_9   0x009510    program     static /projet/faziasep/FEE/Step_4/conception/PIC/PIC_V4_OK/src/uartbuf.c
                   __pa_9   0x0067fa    program     static /projet/faziasep/FEE/Step_4/conception/PIC/PIC_V4_OK/src/myfunc/dac8568.c
                  __pa_90   0x002a9c    program     static /projet/faziasep/FEE/Step_4/conception/PIC/PIC_V4_OK/src/functions.c
                  __pa_91   0x002aa2    program     static /projet/faziasep/FEE/Step_4/conception/PIC/PIC_V4_OK/src/functions.c
                  __pa_92   0x002ab0    program     static /projet/faziasep/FEE/Step_4/conception/PIC/PIC_V4_OK/src/functions.c
                  __pa_93   0x002ab6    program     static /projet/faziasep/FEE/Step_4/conception/PIC/PIC_V4_OK/src/functions.c
                  __pa_94   0x002ac2    program     static /projet/faziasep/FEE/Step_4/conception/PIC/PIC_V4_OK/src/functions.c
                  __pa_95   0x002ad0    program     static /projet/faziasep/FEE/Step_4/conception/PIC/PIC_V4_OK/src/functions.c
                  __pa_96   0x002ad6    program     static /projet/faziasep/FEE/Step_4/conception/PIC/PIC_V4_OK/src/functions.c
                  __pa_97   0x002ae0    program     static /projet/faziasep/FEE/Step_4/conception/PIC/PIC_V4_OK/src/functions.c
                  __pa_98   0x002ae6    program     static /projet/faziasep/FEE/Step_4/conception/PIC/PIC_V4_OK/src/functions.c
                  __pa_99   0x002aee    program     static /projet/faziasep/FEE/Step_4/conception/PIC/PIC_V4_OK/src/functions.c
               __string_0   0x009dc5    program     static /projet/faziasep/FEE/Step_4/conception/PIC/PIC_V4_OK/src/functions.c
               __string_1   0x009dc1    program     static /projet/faziasep/FEE/Step_4/conception/PIC/PIC_V4_OK/src/functions.c
               __string_2   0x009dbc    program     static /projet/faziasep/FEE/Step_4/conception/PIC/PIC_V4_OK/src/functions.c
               __string_3   0x009db7    program     static /projet/faziasep/FEE/Step_4/conception/PIC/PIC_V4_OK/src/functions.c
               __string_4   0x009db0    program     static /projet/faziasep/FEE/Step_4/conception/PIC/PIC_V4_OK/src/functions.c
               __string_5   0x009daa    program     static /projet/faziasep/FEE/Step_4/conception/PIC/PIC_V4_OK/src/functions.c
               __string_6   0x009da1    program     static /projet/faziasep/FEE/Step_4/conception/PIC/PIC_V4_OK/src/functions.c
               __string_7   0x009d92    program     static /projet/faziasep/FEE/Step_4/conception/PIC/PIC_V4_OK/src/functions.c
               __tmplbl_0   0x0000ec    program     static                          
               __tmplbl_0   0x002f64    program     static                          
               __tmplbl_1   0x002f48    program     static                          
               __tmplbl_1   0x0000e6    program     static                          
              __tmplbl_10   0x003c3a    program     static                          
              __tmplbl_11   0x003c34    program     static                          
              __tmplbl_12   0x003c6c    program     static                          
              __tmplbl_13   0x003c66    program     static                          
              __tmplbl_14   0x003c9e    program     static                          
              __tmplbl_15   0x003c98    program     static                          
              __tmplbl_16   0x003cd0    program     static                          
              __tmplbl_17   0x003cca    program     static                          
              __tmplbl_18   0x003d60    program     static                          
              __tmplbl_18   0x005530    program     static                          
              __tmplbl_19   0x003d5a    program     static                          
              __tmplbl_19   0x005530    program     static                          
               __tmplbl_2   0x00305c    program     static                          
              __tmplbl_20   0x003dd8    program     static                          
              __tmplbl_20   0x005530    program     static                          
              __tmplbl_21   0x003dd2    program     static                          
              __tmplbl_21   0x005530    program     static                          
              __tmplbl_22   0x003e58    program     static                          
              __tmplbl_23   0x003e52    program     static                          
             __tmplbl_231   0x00267c    program     static                          
             __tmplbl_232   0x00267c    program     static                          
             __tmplbl_233   0x00267c    program     static                          
             __tmplbl_234   0x00267c    program     static                          
             __tmplbl_235   0x00267c    program     static                          
             __tmplbl_236   0x00267c    program     static                          
             __tmplbl_237   0x00267c    program     static                          
              __tmplbl_24   0x003e9e    program     static                          
             __tmplbl_244   0x00267c    program     static                          
             __tmplbl_245   0x00267c    program     static                          
             __tmplbl_246   0x00267c    program     static                          
             __tmplbl_249   0x00267c    program     static                          
              __tmplbl_25   0x003e98    program     static                          
             __tmplbl_250   0x00267c    program     static                          
             __tmplbl_251   0x00267c    program     static                          
             __tmplbl_253   0x00267c    program     static                          
             __tmplbl_255   0x00267c    program     static                          
             __tmplbl_257   0x00267c    program     static                          
             __tmplbl_258   0x00267c    program     static                          
             __tmplbl_259   0x00267c    program     static                          
              __tmplbl_26   0x003ee4    program     static                          
             __tmplbl_260   0x00267c    program     static                          
             __tmplbl_261   0x00267c    program     static                          
             __tmplbl_263   0x00267c    program     static                          
             __tmplbl_264   0x00267c    program     static                          
             __tmplbl_266   0x00267c    program     static                          
             __tmplbl_267   0x00267c    program     static                          
             __tmplbl_268   0x00267c    program     static                          
             __tmplbl_269   0x00267c    program     static                          
              __tmplbl_27   0x003ede    program     static                          
              __tmplbl_28   0x003f2a    program     static                          
              __tmplbl_29   0x003f24    program     static                          
               __tmplbl_3   0x003054    program     static                          
               __tmplbl_4   0x0030f8    program     static                          
               __tmplbl_5   0x0030f0    program     static                          
              __tmplbl_51   0x004a18    program     static                          
               __tmplbl_6   0x003286    program     static                          
               __tmplbl_7   0x003276    program     static                          
               __tmplbl_8   0x00349a    program     static                          
               __tmplbl_9   0x003490    program     static                          
            __zero_memory   0x009eb4    program     extern C:\MCC18\v3_39\src\traditional\proc\p18F46K20.asm
                _do_cinit   0x009a5e    program     extern C:\MCC18\v3_39\src\traditional\startup\c018i.c
                   _entry   0x000000    program     extern C:\MCC18\v3_39\src\traditional\startup\c018i.c
                   _false   0x009c18    program     static                          
                 _startup   0x009ed4    program     extern C:\MCC18\v3_39\src\traditional\startup\c018i.c
             adc_getvalue   0x0080c0    program     extern /projet/faziasep/FEE/Step_4/conception/PIC/PIC_V4_OK/src/myfunc/ads8332.c
                 adc_init   0x007e2c    program     extern /projet/faziasep/FEE/Step_4/conception/PIC/PIC_V4_OK/src/myfunc/ads8332.c
           analyze_string   0x00854a    program     extern /projet/faziasep/FEE/Step_4/conception/PIC/PIC_V4_OK/src/myfunc/maths.c
         analyze_string32   0x00844e    program     extern /projet/faziasep/FEE/Step_4/conception/PIC/PIC_V4_OK/src/myfunc/maths.c
              apply_hvmax   0x002154    program     extern /projet/faziasep/FEE/Step_4/conception/PIC/PIC_V4_OK/src/functions.c
                asciiconv   0x004bdc    program     extern /projet/faziasep/FEE/Step_4/conception/PIC/PIC_V4_OK/src/myfunc/display.c
       ask_hv_calibration   0x006338    program     extern /projet/faziasep/FEE/Step_4/conception/PIC/PIC_V4_OK/src/myfunc/dac8568.c
                     atoi   0x0098c8    program     extern C:\MCC18\v3_39\src\traditional\stdclib\atoi.asm
             attente_bit1   0x006f5c    program     extern /projet/faziasep/FEE/Step_4/conception/PIC/PIC_V4_OK/src/myfunc/Tsensor.c
   cbuffer_large_dumpdata   0x008b8c    program     extern /projet/faziasep/FEE/Step_4/conception/PIC/PIC_V4_OK/src/cbuffer.c
cbuffer_large_getframe_length   0x0089ec    program     extern /projet/faziasep/FEE/Step_4/conception/PIC/PIC_V4_OK/src/cbuffer.c
       cbuffer_large_init   0x00894e    program     extern /projet/faziasep/FEE/Step_4/conception/PIC/PIC_V4_OK/src/cbuffer.c
       cbuffer_large_read   0x0089c6    program     extern /projet/faziasep/FEE/Step_4/conception/PIC/PIC_V4_OK/src/cbuffer.c
      cbuffer_large_write   0x008994    program     extern /projet/faziasep/FEE/Step_4/conception/PIC/PIC_V4_OK/src/cbuffer.c
               chardectoi   0x008620    program     extern /projet/faziasep/FEE/Step_4/conception/PIC/PIC_V4_OK/src/myfunc/maths.c
               charhextoi   0x0086e6    program     extern /projet/faziasep/FEE/Step_4/conception/PIC/PIC_V4_OK/src/myfunc/maths.c
                compare_l   0x009eca    program     static C:\MCC18\v3_39\src\traditional\proc\p18F46K20.asm
                copy_loop   0x009ad0    program     static                          
            copy_one_byte   0x009ad6    program     static                          
  current_leak_inspection   0x0045f6    program     extern /projet/faziasep/FEE/Step_4/conception/PIC/PIC_V4_OK/src/main.c
                 dac_init   0x006206    program     extern /projet/faziasep/FEE/Step_4/conception/PIC/PIC_V4_OK/src/myfunc/dac8568.c
             dac_sequence   0x006270    program     extern /projet/faziasep/FEE/Step_4/conception/PIC/PIC_V4_OK/src/myfunc/dac8568.c
               diffLcTime   0x004024    program     extern /projet/faziasep/FEE/Step_4/conception/PIC/PIC_V4_OK/src/main.c
            dispchartobin   0x004df6    program     extern /projet/faziasep/FEE/Step_4/conception/PIC/PIC_V4_OK/src/myfunc/display.c
             dispinttobin   0x004d8c    program     extern /projet/faziasep/FEE/Step_4/conception/PIC/PIC_V4_OK/src/myfunc/display.c
         dispuint32tochar   0x004d30    program     extern /projet/faziasep/FEE/Step_4/conception/PIC/PIC_V4_OK/src/myfunc/display.c
           dispuinttochar   0x004cc0    program     extern /projet/faziasep/FEE/Step_4/conception/PIC/PIC_V4_OK/src/myfunc/display.c
                     done   0x009afa    program     static                          
             done_copying   0x009ae4    program     static                          
               enDesHVdev   0x000c66    program     extern /projet/faziasep/FEE/Step_4/conception/PIC/PIC_V4_OK/src/functions.c
      enableDisableHVMeas   0x00226c    program     extern /projet/faziasep/FEE/Step_4/conception/PIC/PIC_V4_OK/src/functions.c
                  endloop   0x009eae    program     static                          
                  endloop   0x009f22    program     static                          
                   f_echo   0x00045e    program     extern /projet/faziasep/FEE/Step_4/conception/PIC/PIC_V4_OK/src/functions.c
              frame_docrc   0x008fd0    program     extern /projet/faziasep/FEE/Step_4/conception/PIC/PIC_V4_OK/src/frame.c
             frame_getcrc   0x00913a    program     extern /projet/faziasep/FEE/Step_4/conception/PIC/PIC_V4_OK/src/frame.c
            frame_getdata   0x0090c6    program     extern /projet/faziasep/FEE/Step_4/conception/PIC/PIC_V4_OK/src/frame.c
             frame_getidb   0x00904e    program     extern /projet/faziasep/FEE/Step_4/conception/PIC/PIC_V4_OK/src/frame.c
             frame_getseq   0x0090a8    program     extern /projet/faziasep/FEE/Step_4/conception/PIC/PIC_V4_OK/src/frame.c
               frame_init   0x008fc8    program     extern /projet/faziasep/FEE/Step_4/conception/PIC/PIC_V4_OK/src/frame.c
                func_init   0x0002a6    program     extern /projet/faziasep/FEE/Step_4/conception/PIC/PIC_V4_OK/src/functions.c
              func_invoke   0x0003ca    program     extern /projet/faziasep/FEE/Step_4/conception/PIC/PIC_V4_OK/src/functions.c
               getCurrent   0x000dde    program     extern /projet/faziasep/FEE/Step_4/conception/PIC/PIC_V4_OK/src/functions.c
        getGeneDacVoltage   0x000dbe    program     extern /projet/faziasep/FEE/Step_4/conception/PIC/PIC_V4_OK/src/functions.c
               getHvValue   0x00101e    program     extern /projet/faziasep/FEE/Step_4/conception/PIC/PIC_V4_OK/src/functions.c
            getInspecTime   0x001b2a    program     extern /projet/faziasep/FEE/Step_4/conception/PIC/PIC_V4_OK/src/functions.c
       getLTC2308Voltages   0x0074a8    program     extern /projet/faziasep/FEE/Step_4/conception/PIC/PIC_V4_OK/src/myfunc/analog.c
        getLTClinVoltages   0x00744e    program     extern /projet/faziasep/FEE/Step_4/conception/PIC/PIC_V4_OK/src/myfunc/analog.c
         getLTCswVoltages   0x0073f4    program     extern /projet/faziasep/FEE/Step_4/conception/PIC/PIC_V4_OK/src/myfunc/analog.c
             getSoftStack   0x001b96    program     extern /projet/faziasep/FEE/Step_4/conception/PIC/PIC_V4_OK/src/functions.c
              getVoltages   0x0071d8    program     extern /projet/faziasep/FEE/Step_4/conception/PIC/PIC_V4_OK/src/myfunc/analog.c
                   get_HV   0x000e66    program     extern /projet/faziasep/FEE/Step_4/conception/PIC/PIC_V4_OK/src/functions.c
      get_PIC_AD_voltages   0x007196    program     extern /projet/faziasep/FEE/Step_4/conception/PIC/PIC_V4_OK/src/myfunc/analog.c
              get_ads8332   0x0013fa    program     extern /projet/faziasep/FEE/Step_4/conception/PIC/PIC_V4_OK/src/functions.c
  get_data_eeprom_address   0x002474    program     extern /projet/faziasep/FEE/Step_4/conception/PIC/PIC_V4_OK/src/functions.c
         get_fpga_version   0x00122c    program     extern /projet/faziasep/FEE/Step_4/conception/PIC/PIC_V4_OK/src/functions.c
                get_hvmax   0x002082    program     extern /projet/faziasep/FEE/Step_4/conception/PIC/PIC_V4_OK/src/functions.c
         get_leak_current   0x0014ac    program     extern /projet/faziasep/FEE/Step_4/conception/PIC/PIC_V4_OK/src/functions.c
          get_pic_version   0x00148e    program     extern /projet/faziasep/FEE/Step_4/conception/PIC/PIC_V4_OK/src/functions.c
                 get_temp   0x001fc8    program     extern /projet/faziasep/FEE/Step_4/conception/PIC/PIC_V4_OK/src/functions.c
            get_value_dec   0x0063a6    program     extern /projet/faziasep/FEE/Step_4/conception/PIC/PIC_V4_OK/src/myfunc/dac8568.c
                    getid   0x004bae    program     extern /projet/faziasep/FEE/Step_4/conception/PIC/PIC_V4_OK/src/myfunc/display.c
             giveHvStatus   0x00060e    program     extern /projet/faziasep/FEE/Step_4/conception/PIC/PIC_V4_OK/src/functions.c
                     htoi   0x0097b8    program     extern /projet/faziasep/FEE/Step_4/conception/PIC/PIC_V4_OK/src/utils.c
                 incdecHV   0x001896    program     extern /projet/faziasep/FEE/Step_4/conception/PIC/PIC_V4_OK/src/functions.c
                      isr   0x000008    program     extern /projet/faziasep/FEE/Step_4/conception/PIC/PIC_V4_OK/src/isr.c
                 jANotInf   0x0079e2    program     static C:\MCC18\v3_39\src\traditional\math\divFP.asm
                 jANotInf   0x007a88    program     static C:\MCC18\v3_39\src\traditional\math\mulFP.asm
                 jANotInf   0x0078c0    program     static C:\MCC18\v3_39\src\traditional\math\addFP.asm
                 jANotNeg   0x007954    program     static C:\MCC18\v3_39\src\traditional\math\addFP.asm
                jANotZero   0x0079f6    program     static C:\MCC18\v3_39\src\traditional\math\divFP.asm
              jAandWsetup   0x007924    program     static C:\MCC18\v3_39\src\traditional\math\addFP.asm
                 jAltBexp   0x007912    program     static C:\MCC18\v3_39\src\traditional\math\addFP.asm
                jBANotInf   0x0078b6    program     static C:\MCC18\v3_39\src\traditional\math\addFP.asm
                 jBNotInf   0x0078ce    program     static C:\MCC18\v3_39\src\traditional\math\addFP.asm
              jBothFinite   0x007a96    program     static C:\MCC18\v3_39\src\traditional\math\mulFP.asm
             jBothNotZero   0x007aa2    program     static C:\MCC18\v3_39\src\traditional\math\mulFP.asm
            jDifOrPosSign   0x0078e2    program     static C:\MCC18\v3_39\src\traditional\math\addFP.asm
                     jEnd   0x009a4c    program     static C:\MCC18\v3_39\src\traditional\stdclib\strncpy.asm
                     jEnd   0x009a00    program     static C:\MCC18\v3_39\src\traditional\stdclib\strlen.asm
                     jEnd   0x0099e4    program     static C:\MCC18\v3_39\src\traditional\stdclib\memset.asm
                     jEnd   0x009986    program     static C:\MCC18\v3_39\src\traditional\stdclib\atoi.asm
                 jEndLoop   0x00996e    program     static C:\MCC18\v3_39\src\traditional\stdclib\atoi.asm
                    jExit   0x007d1e    program     static C:\MCC18\v3_39\src\traditional\math\castFP16.asm
               jFinalSign   0x0079bc    program     static C:\MCC18\v3_39\src\traditional\math\addFP.asm
                jHaveZero   0x007a9e    program     static C:\MCC18\v3_39\src\traditional\math\mulFP.asm
                jI2F16Beg   0x007880    program     static C:\MCC18\v3_39\src\traditional\math\cast16FP.asm
                    jLoop   0x007a1e    program     static C:\MCC18\v3_39\src\traditional\math\divFP.asm
                    jLoop   0x007cfe    program     static C:\MCC18\v3_39\src\traditional\math\castFP16.asm
                    jLoop   0x009a2a    program     static C:\MCC18\v3_39\src\traditional\stdclib\strncpy.asm
                    jLoop   0x0099f6    program     static C:\MCC18\v3_39\src\traditional\stdclib\strlen.asm
                    jLoop   0x0099c6    program     static C:\MCC18\v3_39\src\traditional\stdclib\memset.asm
                    jLoop   0x009920    program     static C:\MCC18\v3_39\src\traditional\stdclib\atoi.asm
                jLoopExit   0x007d0e    program     static C:\MCC18\v3_39\src\traditional\math\castFP16.asm
                     jMax   0x007cd2    program     static C:\MCC18\v3_39\src\traditional\math\castFP16.asm
                  jMaxNeg   0x007ce0    program     static C:\MCC18\v3_39\src\traditional\math\castFP16.asm
                  jMaxPos   0x007cd6    program     static C:\MCC18\v3_39\src\traditional\math\castFP16.asm
                    jNext   0x007a44    program     static C:\MCC18\v3_39\src\traditional\math\divFP.asm
                jNoAdjust   0x007a42    program     static C:\MCC18\v3_39\src\traditional\math\divFP.asm
             jNotBothZero   0x0078e6    program     static C:\MCC18\v3_39\src\traditional\math\addFP.asm
                  jNotInf   0x007cee    program     static C:\MCC18\v3_39\src\traditional\math\castFP16.asm
                  jPkLoop   0x007d66    program     static C:\MCC18\v3_39\src\traditional\math\packFP.asm
             jPkRoundDone   0x007db0    program     static C:\MCC18\v3_39\src\traditional\math\packFP.asm
               jPkRoundIt   0x007d98    program     static C:\MCC18\v3_39\src\traditional\math\packFP.asm
             jPkShiftDone   0x007d82    program     static C:\MCC18\v3_39\src\traditional\math\packFP.asm
           jReturnPosInf0   0x007d3c    program     static C:\MCC18\v3_39\src\traditional\math\packFP.asm
               jShiftDone   0x00797c    program     static C:\MCC18\v3_39\src\traditional\math\addFP.asm
               jShiftLoop   0x00796e    program     static C:\MCC18\v3_39\src\traditional\math\addFP.asm
                jSignDone   0x0079ac    program     static C:\MCC18\v3_39\src\traditional\math\addFP.asm
              jSignedZero   0x0079ec    program     static C:\MCC18\v3_39\src\traditional\math\divFP.asm
                  jSkipWS   0x0098f6    program     static C:\MCC18\v3_39\src\traditional\stdclib\atoi.asm
                 jSkipWS1   0x009908    program     static C:\MCC18\v3_39\src\traditional\stdclib\atoi.asm
                 jTstSign   0x00990c    program     static C:\MCC18\v3_39\src\traditional\stdclib\atoi.asm
                jTstSign1   0x009918    program     static C:\MCC18\v3_39\src\traditional\stdclib\atoi.asm
                jTstSign2   0x00991e    program     static C:\MCC18\v3_39\src\traditional\stdclib\atoi.asm
                jTstSign3   0x009920    program     static C:\MCC18\v3_39\src\traditional\stdclib\atoi.asm
                  jUnpkA1   0x007dda    program     static C:\MCC18\v3_39\src\traditional\math\UnpackFP.asm
                  jUnpkA2   0x007df2    program     static C:\MCC18\v3_39\src\traditional\math\UnpackFP.asm
                 jUnpkANZ   0x007de8    program     static C:\MCC18\v3_39\src\traditional\math\UnpackFP.asm
                  jUnpkB1   0x007e0a    program     static C:\MCC18\v3_39\src\traditional\math\UnpackFP.asm
                  jUnpkB2   0x007e22    program     static C:\MCC18\v3_39\src\traditional\math\UnpackFP.asm
                 jUnpkBNZ   0x007e18    program     static C:\MCC18\v3_39\src\traditional\math\UnpackFP.asm
                 jUnpkNaN   0x007dfc    program     static C:\MCC18\v3_39\src\traditional\math\UnpackFP.asm
                 jWNotNeg   0x007968    program     static C:\MCC18\v3_39\src\traditional\math\addFP.asm
                    jZero   0x007ce8    program     static C:\MCC18\v3_39\src\traditional\math\castFP16.asm
               jZero1and2   0x007d40    program     static C:\MCC18\v3_39\src\traditional\math\packFP.asm
             leak_current   0x007e6e    program     extern /projet/faziasep/FEE/Step_4/conception/PIC/PIC_V4_OK/src/myfunc/ads8332.c
                     loop   0x009ee4    program     static                          
                     loop   0x009f14    program     static                          
                     loop   0x009e92    program     static                          
                     loop   0x009be4    program     static                          
                   loop_h   0x009ec2    program     static C:\MCC18\v3_39\src\traditional\proc\p18F46K20.asm
                   loop_l   0x009ecc    program     static C:\MCC18\v3_39\src\traditional\proc\p18F46K20.asm
                     main   0x002e16    program     extern /projet/faziasep/FEE/Step_4/conception/PIC/PIC_V4_OK/src/main.c
                   memset   0x0099b2    program     extern C:\MCC18\v3_39\src\traditional\stdclib\memset.asm
                 memsetup   0x005f1a    program     extern /projet/faziasep/FEE/Step_4/conception/PIC/PIC_V4_OK/src/setup.c
            myStrCpy1Char   0x0052de    program     extern /projet/faziasep/FEE/Step_4/conception/PIC/PIC_V4_OK/src/myfunc/display.c
             myStrCpyByte   0x0050ee    program     extern /projet/faziasep/FEE/Step_4/conception/PIC/PIC_V4_OK/src/myfunc/display.c
             myStrCpyChar   0x00520a    program     extern /projet/faziasep/FEE/Step_4/conception/PIC/PIC_V4_OK/src/myfunc/display.c
            myStrCpyChar2   0x005272    program     extern /projet/faziasep/FEE/Step_4/conception/PIC/PIC_V4_OK/src/myfunc/display.c
              myStrCpyHex   0x00531c    program     extern /projet/faziasep/FEE/Step_4/conception/PIC/PIC_V4_OK/src/myfunc/display.c
             myStrCpyUint   0x004e4e    program     extern /projet/faziasep/FEE/Step_4/conception/PIC/PIC_V4_OK/src/myfunc/display.c
                myputsspi   0x008e1c    program     extern /projet/faziasep/FEE/Step_4/conception/PIC/PIC_V4_OK/src/myfunc/spi.c
                 nullFunc   0x0013f2    program     extern /projet/faziasep/FEE/Step_4/conception/PIC/PIC_V4_OK/src/functions.c
       pa_offset_settings   0x004102    program     extern /projet/faziasep/FEE/Step_4/conception/PIC/PIC_V4_OK/src/main.c
                  pow2x16   0x009f3e    program     extern C:\MCC18\v3_39\src\traditional\math\pow2x16.c
                  power10   0x0087ca    program     extern /projet/faziasep/FEE/Step_4/conception/PIC/PIC_V4_OK/src/myfunc/maths.c
               power10_32   0x0083c4    program     extern /projet/faziasep/FEE/Step_4/conception/PIC/PIC_V4_OK/src/myfunc/maths.c
        preamplifier_test   0x00073c    program     extern /projet/faziasep/FEE/Step_4/conception/PIC/PIC_V4_OK/src/functions.c
                   pulser   0x0062ee    program     extern /projet/faziasep/FEE/Step_4/conception/PIC/PIC_V4_OK/src/myfunc/dac8568.c
                    rdspi   0x008c90    program     extern /projet/faziasep/FEE/Step_4/conception/PIC/PIC_V4_OK/src/myfunc/spi.c
                 resetPIC   0x00047a    program     extern /projet/faziasep/FEE/Step_4/conception/PIC/PIC_V4_OK/src/functions.c
          reset_both_fpga   0x008dfa    program     extern /projet/faziasep/FEE/Step_4/conception/PIC/PIC_V4_OK/src/myfunc/spi.c
                 setGetSN   0x0004e2    program     extern /projet/faziasep/FEE/Step_4/conception/PIC/PIC_V4_OK/src/functions.c
               setHVCsiAB   0x0006b0    program     extern /projet/faziasep/FEE/Step_4/conception/PIC/PIC_V4_OK/src/functions.c
            setInspecTime   0x001bb6    program     extern /projet/faziasep/FEE/Step_4/conception/PIC/PIC_V4_OK/src/functions.c
  set_data_eeprom_address   0x0023d6    program     extern /projet/faziasep/FEE/Step_4/conception/PIC/PIC_V4_OK/src/functions.c
                set_hvmax   0x0022dc    program     extern /projet/faziasep/FEE/Step_4/conception/PIC/PIC_V4_OK/src/functions.c
       set_off_V_preamp1a   0x008ee6    program     extern /projet/faziasep/FEE/Step_4/conception/PIC/PIC_V4_OK/src/myfunc/spi.c
       set_off_V_preamp1b   0x008f00    program     extern /projet/faziasep/FEE/Step_4/conception/PIC/PIC_V4_OK/src/myfunc/spi.c
       set_off_V_preamp2a   0x008eb2    program     extern /projet/faziasep/FEE/Step_4/conception/PIC/PIC_V4_OK/src/myfunc/spi.c
       set_off_V_preamp2b   0x008ecc    program     extern /projet/faziasep/FEE/Step_4/conception/PIC/PIC_V4_OK/src/myfunc/spi.c
       set_off_V_preamp3a   0x008e7e    program     extern /projet/faziasep/FEE/Step_4/conception/PIC/PIC_V4_OK/src/myfunc/spi.c
       set_off_V_preamp3b   0x008e98    program     extern /projet/faziasep/FEE/Step_4/conception/PIC/PIC_V4_OK/src/myfunc/spi.c
     set_pulse_parameters   0x001564    program     extern /projet/faziasep/FEE/Step_4/conception/PIC/PIC_V4_OK/src/functions.c
                  set_vhv   0x001d1e    program     extern /projet/faziasep/FEE/Step_4/conception/PIC/PIC_V4_OK/src/functions.c
 set_voltage_preamplifier   0x001742    program     extern /projet/faziasep/FEE/Step_4/conception/PIC/PIC_V4_OK/src/functions.c
             setautoffset   0x000bcc    program     extern /projet/faziasep/FEE/Step_4/conception/PIC/PIC_V4_OK/src/functions.c
                 setparam   0x009534    program     extern /projet/faziasep/FEE/Step_4/conception/PIC/PIC_V4_OK/src/myfunc/wr_eeprom.c
                 slop_vhv   0x0065c6    program     extern /projet/faziasep/FEE/Step_4/conception/PIC/PIC_V4_OK/src/myfunc/dac8568.c
         spi_get_regvalue   0x00250c    program     extern /projet/faziasep/FEE/Step_4/conception/PIC/PIC_V4_OK/src/functions.c
         spi_set_regvalue   0x002592    program     extern /projet/faziasep/FEE/Step_4/conception/PIC/PIC_V4_OK/src/functions.c
              store_param   0x0023cc    program     extern /projet/faziasep/FEE/Step_4/conception/PIC/PIC_V4_OK/src/functions.c
               storeparam   0x009646    program     extern /projet/faziasep/FEE/Step_4/conception/PIC/PIC_V4_OK/src/myfunc/wr_eeprom.c
                   strlen   0x0099e6    program     extern C:\MCC18\v3_39\src\traditional\stdclib\strlen.asm
                  strncpy   0x009a02    program     extern C:\MCC18\v3_39\src\traditional\stdclib\strncpy.asm
                     temp   0x006b82    program     extern /projet/faziasep/FEE/Step_4/conception/PIC/PIC_V4_OK/src/myfunc/Tsensor.c
                temp_init   0x0069f0    program     extern /projet/faziasep/FEE/Step_4/conception/PIC/PIC_V4_OK/src/myfunc/Tsensor.c
                     test   0x009a78    program     static                          
  uart_ask_hv_calibration   0x00238e    program     extern /projet/faziasep/FEE/Step_4/conception/PIC/PIC_V4_OK/src/functions.c
           uart_csi_relay   0x0005c2    program     extern /projet/faziasep/FEE/Step_4/conception/PIC/PIC_V4_OK/src/functions.c
   uart_preamplifier_test   0x000ad8    program     extern /projet/faziasep/FEE/Step_4/conception/PIC/PIC_V4_OK/src/functions.c
     uart_reset_both_fpga   0x0005fe    program     extern /projet/faziasep/FEE/Step_4/conception/PIC/PIC_V4_OK/src/functions.c
             uartbuf_dump   0x0092cc    program     extern /projet/faziasep/FEE/Step_4/conception/PIC/PIC_V4_OK/src/uartbuf.c
            uartbuf_flush   0x0092f6    program     extern /projet/faziasep/FEE/Step_4/conception/PIC/PIC_V4_OK/src/uartbuf.c
         uartbuf_getframe   0x009352    program     extern /projet/faziasep/FEE/Step_4/conception/PIC/PIC_V4_OK/src/uartbuf.c
             uartbuf_init   0x00929e    program     extern /projet/faziasep/FEE/Step_4/conception/PIC/PIC_V4_OK/src/uartbuf.c
         uartbuf_putframe   0x0093de    program     extern /projet/faziasep/FEE/Step_4/conception/PIC/PIC_V4_OK/src/uartbuf.c
                  ucsetup   0x0057ea    program     extern /projet/faziasep/FEE/Step_4/conception/PIC/PIC_V4_OK/src/setup.c
                  uinttoa   0x004c1c    program     extern /projet/faziasep/FEE/Step_4/conception/PIC/PIC_V4_OK/src/myfunc/display.c
                write_bit   0x006f40    program     extern /projet/faziasep/FEE/Step_4/conception/PIC/PIC_V4_OK/src/myfunc/Tsensor.c
          write_bit_start   0x006f32    program     extern /projet/faziasep/FEE/Step_4/conception/PIC/PIC_V4_OK/src/myfunc/Tsensor.c
                    wrspi   0x008d50    program     extern /projet/faziasep/FEE/Step_4/conception/PIC/PIC_V4_OK/src/myfunc/spi.c
               zero_block   0x009ec2    program     static C:\MCC18\v3_39\src\traditional\proc\p18F46K20.asm
                   ADCON0   0x000fc2       data     extern C:\MCC18\v3_39\src\traditional\proc\p18F46K20.asm
               ADCON0bits   0x000fc2       data     extern C:\MCC18\v3_39\src\traditional\proc\p18F46K20.asm
                   ADCON1   0x000fc1       data     extern C:\MCC18\v3_39\src\traditional\proc\p18F46K20.asm
               ADCON1bits   0x000fc1       data     extern C:\MCC18\v3_39\src\traditional\proc\p18F46K20.asm
                   ADCON2   0x000fc0       data     extern C:\MCC18\v3_39\src\traditional\proc\p18F46K20.asm
               ADCON2bits   0x000fc0       data     extern C:\MCC18\v3_39\src\traditional\proc\p18F46K20.asm
                    ADRES   0x000fc3       data     extern C:\MCC18\v3_39\src\traditional\proc\p18F46K20.asm
                   ADRESH   0x000fc4       data     extern C:\MCC18\v3_39\src\traditional\proc\p18F46K20.asm
                   ADRESL   0x000fc3       data     extern C:\MCC18\v3_39\src\traditional\proc\p18F46K20.asm
                    ANSEL   0x000f7e       data     extern C:\MCC18\v3_39\src\traditional\proc\p18F46K20.asm
                   ANSELH   0x000f7f       data     extern C:\MCC18\v3_39\src\traditional\proc\p18F46K20.asm
               ANSELHbits   0x000f7f       data     extern C:\MCC18\v3_39\src\traditional\proc\p18F46K20.asm
                ANSELbits   0x000f7e       data     extern C:\MCC18\v3_39\src\traditional\proc\p18F46K20.asm
                  BAUDCON   0x000fb8       data     extern C:\MCC18\v3_39\src\traditional\proc\p18F46K20.asm
              BAUDCONbits   0x000fb8       data     extern C:\MCC18\v3_39\src\traditional\proc\p18F46K20.asm
                  BAUDCTL   0x000fb8       data     extern C:\MCC18\v3_39\src\traditional\proc\p18F46K20.asm
              BAUDCTLbits   0x000fb8       data     extern C:\MCC18\v3_39\src\traditional\proc\p18F46K20.asm
                      BSR   0x000fe0       data     extern C:\MCC18\v3_39\src\traditional\proc\p18F46K20.asm
                  CCP1CON   0x000fbd       data     extern C:\MCC18\v3_39\src\traditional\proc\p18F46K20.asm
              CCP1CONbits   0x000fbd       data     extern C:\MCC18\v3_39\src\traditional\proc\p18F46K20.asm
                  CCP2CON   0x000fba       data     extern C:\MCC18\v3_39\src\traditional\proc\p18F46K20.asm
              CCP2CONbits   0x000fba       data     extern C:\MCC18\v3_39\src\traditional\proc\p18F46K20.asm
                    CCPR1   0x000fbe       data     extern C:\MCC18\v3_39\src\traditional\proc\p18F46K20.asm
                   CCPR1H   0x000fbf       data     extern C:\MCC18\v3_39\src\traditional\proc\p18F46K20.asm
                   CCPR1L   0x000fbe       data     extern C:\MCC18\v3_39\src\traditional\proc\p18F46K20.asm
                    CCPR2   0x000fbb       data     extern C:\MCC18\v3_39\src\traditional\proc\p18F46K20.asm
                   CCPR2H   0x000fbc       data     extern C:\MCC18\v3_39\src\traditional\proc\p18F46K20.asm
                   CCPR2L   0x000fbb       data     extern C:\MCC18\v3_39\src\traditional\proc\p18F46K20.asm
                  CM1CON0   0x000f7b       data     extern C:\MCC18\v3_39\src\traditional\proc\p18F46K20.asm
              CM1CON0bits   0x000f7b       data     extern C:\MCC18\v3_39\src\traditional\proc\p18F46K20.asm
                  CM2CON0   0x000f7a       data     extern C:\MCC18\v3_39\src\traditional\proc\p18F46K20.asm
              CM2CON0bits   0x000f7a       data     extern C:\MCC18\v3_39\src\traditional\proc\p18F46K20.asm
                  CM2CON1   0x000f79       data     extern C:\MCC18\v3_39\src\traditional\proc\p18F46K20.asm
              CM2CON1bits   0x000f79       data     extern C:\MCC18\v3_39\src\traditional\proc\p18F46K20.asm
                CSI_relay   0x000529       data     extern /projet/faziasep/FEE/Step_4/conception/PIC/PIC_V4_OK/src/main.c
                   CVRCON   0x000fb5       data     extern C:\MCC18\v3_39\src\traditional\proc\p18F46K20.asm
                  CVRCON2   0x000fb4       data     extern C:\MCC18\v3_39\src\traditional\proc\p18F46K20.asm
              CVRCON2bits   0x000fb4       data     extern C:\MCC18\v3_39\src\traditional\proc\p18F46K20.asm
               CVRCONbits   0x000fb5       data     extern C:\MCC18\v3_39\src\traditional\proc\p18F46K20.asm
                     DDRA   0x000f92       data     extern C:\MCC18\v3_39\src\traditional\proc\p18F46K20.asm
                 DDRAbits   0x000f92       data     extern C:\MCC18\v3_39\src\traditional\proc\p18F46K20.asm
                     DDRB   0x000f93       data     extern C:\MCC18\v3_39\src\traditional\proc\p18F46K20.asm
                 DDRBbits   0x000f93       data     extern C:\MCC18\v3_39\src\traditional\proc\p18F46K20.asm
                     DDRC   0x000f94       data     extern C:\MCC18\v3_39\src\traditional\proc\p18F46K20.asm
                 DDRCbits   0x000f94       data     extern C:\MCC18\v3_39\src\traditional\proc\p18F46K20.asm
                     DDRD   0x000f95       data     extern C:\MCC18\v3_39\src\traditional\proc\p18F46K20.asm
                 DDRDbits   0x000f95       data     extern C:\MCC18\v3_39\src\traditional\proc\p18F46K20.asm
                     DDRE   0x000f96       data     extern C:\MCC18\v3_39\src\traditional\proc\p18F46K20.asm
                 DDREbits   0x000f96       data     extern C:\MCC18\v3_39\src\traditional\proc\p18F46K20.asm
            DelayCounter1   0x00002d       data     extern C:\MCC18\v3_39\src\traditional\delays\delayd1.asm
            DelayCounter2   0x00002c       data     extern C:\MCC18\v3_39\src\traditional\delays\delayd2.asm
                  ECCP1AS   0x000fb6       data     extern C:\MCC18\v3_39\src\traditional\proc\p18F46K20.asm
              ECCP1ASbits   0x000fb6       data     extern C:\MCC18\v3_39\src\traditional\proc\p18F46K20.asm
                    EEADR   0x000fa9       data     extern C:\MCC18\v3_39\src\traditional\proc\p18F46K20.asm
                   EEADRH   0x000faa       data     extern C:\MCC18\v3_39\src\traditional\proc\p18F46K20.asm
               EEADRHbits   0x000faa       data     extern C:\MCC18\v3_39\src\traditional\proc\p18F46K20.asm
                EEADRbits   0x000fa9       data     extern C:\MCC18\v3_39\src\traditional\proc\p18F46K20.asm
                   EECON1   0x000fa6       data     extern C:\MCC18\v3_39\src\traditional\proc\p18F46K20.asm
               EECON1bits   0x000fa6       data     extern C:\MCC18\v3_39\src\traditional\proc\p18F46K20.asm
                   EECON2   0x000fa7       data     extern C:\MCC18\v3_39\src\traditional\proc\p18F46K20.asm
                   EEDATA   0x000fa8       data     extern C:\MCC18\v3_39\src\traditional\proc\p18F46K20.asm
                     FSR0   0x000fe9       data     extern C:\MCC18\v3_39\src\traditional\proc\p18F46K20.asm
                    FSR0H   0x000fea       data     extern C:\MCC18\v3_39\src\traditional\proc\p18F46K20.asm
                    FSR0L   0x000fe9       data     extern C:\MCC18\v3_39\src\traditional\proc\p18F46K20.asm
                     FSR1   0x000fe1       data     extern C:\MCC18\v3_39\src\traditional\proc\p18F46K20.asm
                    FSR1H   0x000fe2       data     extern C:\MCC18\v3_39\src\traditional\proc\p18F46K20.asm
                    FSR1L   0x000fe1       data     extern C:\MCC18\v3_39\src\traditional\proc\p18F46K20.asm
                     FSR2   0x000fd9       data     extern C:\MCC18\v3_39\src\traditional\proc\p18F46K20.asm
                    FSR2H   0x000fda       data     extern C:\MCC18\v3_39\src\traditional\proc\p18F46K20.asm
                    FSR2L   0x000fd9       data     extern C:\MCC18\v3_39\src\traditional\proc\p18F46K20.asm
           GeneDacVoltage   0x00056a       data     extern /projet/faziasep/FEE/Step_4/conception/PIC/PIC_V4_OK/src/main.c
                  HLVDCON   0x000fd2       data     extern C:\MCC18\v3_39\src\traditional\proc\p18F46K20.asm
              HLVDCONbits   0x000fd2       data     extern C:\MCC18\v3_39\src\traditional\proc\p18F46K20.asm
          HV_borne_sup_A1   0x0004f6       data     extern /projet/faziasep/FEE/Step_4/conception/PIC/PIC_V4_OK/src/main.c
          HV_borne_sup_A2   0x0004f8       data     extern /projet/faziasep/FEE/Step_4/conception/PIC/PIC_V4_OK/src/main.c
          HV_borne_sup_B1   0x0004fa       data     extern /projet/faziasep/FEE/Step_4/conception/PIC/PIC_V4_OK/src/main.c
          HV_borne_sup_B2   0x0004fc       data     extern /projet/faziasep/FEE/Step_4/conception/PIC/PIC_V4_OK/src/main.c
            HV_read_coefA   0x000532       data     extern /projet/faziasep/FEE/Step_4/conception/PIC/PIC_V4_OK/src/main.c
            HV_read_coefB   0x000542       data     extern /projet/faziasep/FEE/Step_4/conception/PIC/PIC_V4_OK/src/main.c
                   HVmeas   0x000467       data     extern /projet/faziasep/FEE/Step_4/conception/PIC/PIC_V4_OK/src/main.c
               HVmeas_bin   0x000479       data     extern /projet/faziasep/FEE/Step_4/conception/PIC/PIC_V4_OK/src/main.c
                    HvInc   0x0004d4       data     extern /projet/faziasep/FEE/Step_4/conception/PIC/PIC_V4_OK/src/main.c
            HvPhysCorrect   0x0004e8       data     extern /projet/faziasep/FEE/Step_4/conception/PIC/PIC_V4_OK/src/main.c
             HvPhysTarget   0x0004e0       data     extern /projet/faziasep/FEE/Step_4/conception/PIC/PIC_V4_OK/src/main.c
                 HvStatus   0x0004dc       data     extern /projet/faziasep/FEE/Step_4/conception/PIC/PIC_V4_OK/src/main.c
              HvStatusOld   0x000463       data     extern /projet/faziasep/FEE/Step_4/conception/PIC/PIC_V4_OK/src/main.c
               HvValueTab   0x0004c4       data     extern /projet/faziasep/FEE/Step_4/conception/PIC/PIC_V4_OK/src/main.c
                    INDF0   0x000fef       data     extern C:\MCC18\v3_39\src\traditional\proc\p18F46K20.asm
                    INDF1   0x000fe7       data     extern C:\MCC18\v3_39\src\traditional\proc\p18F46K20.asm
                    INDF2   0x000fdf       data     extern C:\MCC18\v3_39\src\traditional\proc\p18F46K20.asm
                   INTCON   0x000ff2       data     extern C:\MCC18\v3_39\src\traditional\proc\p18F46K20.asm
                  INTCON2   0x000ff1       data     extern C:\MCC18\v3_39\src\traditional\proc\p18F46K20.asm
              INTCON2bits   0x000ff1       data     extern C:\MCC18\v3_39\src\traditional\proc\p18F46K20.asm
                  INTCON3   0x000ff0       data     extern C:\MCC18\v3_39\src\traditional\proc\p18F46K20.asm
              INTCON3bits   0x000ff0       data     extern C:\MCC18\v3_39\src\traditional\proc\p18F46K20.asm
               INTCONbits   0x000ff2       data     extern C:\MCC18\v3_39\src\traditional\proc\p18F46K20.asm
                     IOCB   0x000f7d       data     extern C:\MCC18\v3_39\src\traditional\proc\p18F46K20.asm
                 IOCBbits   0x000f7d       data     extern C:\MCC18\v3_39\src\traditional\proc\p18F46K20.asm
                     IPR1   0x000f9f       data     extern C:\MCC18\v3_39\src\traditional\proc\p18F46K20.asm
                 IPR1bits   0x000f9f       data     extern C:\MCC18\v3_39\src\traditional\proc\p18F46K20.asm
                     IPR2   0x000fa2       data     extern C:\MCC18\v3_39\src\traditional\proc\p18F46K20.asm
                 IPR2bits   0x000fa2       data     extern C:\MCC18\v3_39\src\traditional\proc\p18F46K20.asm
                     LATA   0x000f89       data     extern C:\MCC18\v3_39\src\traditional\proc\p18F46K20.asm
                 LATAbits   0x000f89       data     extern C:\MCC18\v3_39\src\traditional\proc\p18F46K20.asm
                     LATB   0x000f8a       data     extern C:\MCC18\v3_39\src\traditional\proc\p18F46K20.asm
                 LATBbits   0x000f8a       data     extern C:\MCC18\v3_39\src\traditional\proc\p18F46K20.asm
                     LATC   0x000f8b       data     extern C:\MCC18\v3_39\src\traditional\proc\p18F46K20.asm
                 LATCbits   0x000f8b       data     extern C:\MCC18\v3_39\src\traditional\proc\p18F46K20.asm
                     LATD   0x000f8c       data     extern C:\MCC18\v3_39\src\traditional\proc\p18F46K20.asm
                 LATDbits   0x000f8c       data     extern C:\MCC18\v3_39\src\traditional\proc\p18F46K20.asm
                     LATE   0x000f8d       data     extern C:\MCC18\v3_39\src\traditional\proc\p18F46K20.asm
                 LATEbits   0x000f8d       data     extern C:\MCC18\v3_39\src\traditional\proc\p18F46K20.asm
                   LVDCON   0x000fd2       data     extern C:\MCC18\v3_39\src\traditional\proc\p18F46K20.asm
               LVDCONbits   0x000fd2       data     extern C:\MCC18\v3_39\src\traditional\proc\p18F46K20.asm
                   OSCCON   0x000fd3       data     extern C:\MCC18\v3_39\src\traditional\proc\p18F46K20.asm
               OSCCONbits   0x000fd3       data     extern C:\MCC18\v3_39\src\traditional\proc\p18F46K20.asm
                  OSCTUNE   0x000f9b       data     extern C:\MCC18\v3_39\src\traditional\proc\p18F46K20.asm
              OSCTUNEbits   0x000f9b       data     extern C:\MCC18\v3_39\src\traditional\proc\p18F46K20.asm
                       PC   0x000ff9       data     extern C:\MCC18\v3_39\src\traditional\proc\p18F46K20.asm
                      PCL   0x000ff9       data     extern C:\MCC18\v3_39\src\traditional\proc\p18F46K20.asm
                   PCLATH   0x000ffa       data     extern C:\MCC18\v3_39\src\traditional\proc\p18F46K20.asm
                   PCLATU   0x000ffb       data     extern C:\MCC18\v3_39\src\traditional\proc\p18F46K20.asm
                     PIE1   0x000f9d       data     extern C:\MCC18\v3_39\src\traditional\proc\p18F46K20.asm
                 PIE1bits   0x000f9d       data     extern C:\MCC18\v3_39\src\traditional\proc\p18F46K20.asm
                     PIE2   0x000fa0       data     extern C:\MCC18\v3_39\src\traditional\proc\p18F46K20.asm
                 PIE2bits   0x000fa0       data     extern C:\MCC18\v3_39\src\traditional\proc\p18F46K20.asm
                     PIR1   0x000f9e       data     extern C:\MCC18\v3_39\src\traditional\proc\p18F46K20.asm
                 PIR1bits   0x000f9e       data     extern C:\MCC18\v3_39\src\traditional\proc\p18F46K20.asm
                     PIR2   0x000fa1       data     extern C:\MCC18\v3_39\src\traditional\proc\p18F46K20.asm
                 PIR2bits   0x000fa1       data     extern C:\MCC18\v3_39\src\traditional\proc\p18F46K20.asm
                   PLUSW0   0x000feb       data     extern C:\MCC18\v3_39\src\traditional\proc\p18F46K20.asm
                   PLUSW1   0x000fe3       data     extern C:\MCC18\v3_39\src\traditional\proc\p18F46K20.asm
                   PLUSW2   0x000fdb       data     extern C:\MCC18\v3_39\src\traditional\proc\p18F46K20.asm
                    PORTA   0x000f80       data     extern C:\MCC18\v3_39\src\traditional\proc\p18F46K20.asm
                PORTAbits   0x000f80       data     extern C:\MCC18\v3_39\src\traditional\proc\p18F46K20.asm
                    PORTB   0x000f81       data     extern C:\MCC18\v3_39\src\traditional\proc\p18F46K20.asm
                PORTBbits   0x000f81       data     extern C:\MCC18\v3_39\src\traditional\proc\p18F46K20.asm
                    PORTC   0x000f82       data     extern C:\MCC18\v3_39\src\traditional\proc\p18F46K20.asm
                PORTCbits   0x000f82       data     extern C:\MCC18\v3_39\src\traditional\proc\p18F46K20.asm
                    PORTD   0x000f83       data     extern C:\MCC18\v3_39\src\traditional\proc\p18F46K20.asm
                PORTDbits   0x000f83       data     extern C:\MCC18\v3_39\src\traditional\proc\p18F46K20.asm
                    PORTE   0x000f84       data     extern C:\MCC18\v3_39\src\traditional\proc\p18F46K20.asm
                PORTEbits   0x000f84       data     extern C:\MCC18\v3_39\src\traditional\proc\p18F46K20.asm
                 POSTDEC0   0x000fed       data     extern C:\MCC18\v3_39\src\traditional\proc\p18F46K20.asm
                 POSTDEC1   0x000fe5       data     extern C:\MCC18\v3_39\src\traditional\proc\p18F46K20.asm
                 POSTDEC2   0x000fdd       data     extern C:\MCC18\v3_39\src\traditional\proc\p18F46K20.asm
                 POSTINC0   0x000fee       data     extern C:\MCC18\v3_39\src\traditional\proc\p18F46K20.asm
                 POSTINC1   0x000fe6       data     extern C:\MCC18\v3_39\src\traditional\proc\p18F46K20.asm
                 POSTINC2   0x000fde       data     extern C:\MCC18\v3_39\src\traditional\proc\p18F46K20.asm
                      PR2   0x000fcb       data     extern C:\MCC18\v3_39\src\traditional\proc\p18F46K20.asm
                  PREINC0   0x000fec       data     extern C:\MCC18\v3_39\src\traditional\proc\p18F46K20.asm
                  PREINC1   0x000fe4       data     extern C:\MCC18\v3_39\src\traditional\proc\p18F46K20.asm
                  PREINC2   0x000fdc       data     extern C:\MCC18\v3_39\src\traditional\proc\p18F46K20.asm
                     PROD   0x000ff3       data     extern C:\MCC18\v3_39\src\traditional\proc\p18F46K20.asm
                    PRODH   0x000ff4       data     extern C:\MCC18\v3_39\src\traditional\proc\p18F46K20.asm
                    PRODL   0x000ff3       data     extern C:\MCC18\v3_39\src\traditional\proc\p18F46K20.asm
                  PSTRCON   0x000fb9       data     extern C:\MCC18\v3_39\src\traditional\proc\p18F46K20.asm
              PSTRCONbits   0x000fb9       data     extern C:\MCC18\v3_39\src\traditional\proc\p18F46K20.asm
                  PWM1CON   0x000fb7       data     extern C:\MCC18\v3_39\src\traditional\proc\p18F46K20.asm
              PWM1CONbits   0x000fb7       data     extern C:\MCC18\v3_39\src\traditional\proc\p18F46K20.asm
                     RCON   0x000fd0       data     extern C:\MCC18\v3_39\src\traditional\proc\p18F46K20.asm
                 RCONbits   0x000fd0       data     extern C:\MCC18\v3_39\src\traditional\proc\p18F46K20.asm
                    RCREG   0x000fae       data     extern C:\MCC18\v3_39\src\traditional\proc\p18F46K20.asm
                    RCSTA   0x000fab       data     extern C:\MCC18\v3_39\src\traditional\proc\p18F46K20.asm
                RCSTAbits   0x000fab       data     extern C:\MCC18\v3_39\src\traditional\proc\p18F46K20.asm
                     SIGN   0x000000       data     extern C:\MCC18\v3_39\src\traditional\math\cmath18.asm
                   SLRCON   0x000f78       data     extern C:\MCC18\v3_39\src\traditional\proc\p18F46K20.asm
               SLRCONbits   0x000f78       data     extern C:\MCC18\v3_39\src\traditional\proc\p18F46K20.asm
                    SPBRG   0x000faf       data     extern C:\MCC18\v3_39\src\traditional\proc\p18F46K20.asm
                   SPBRGH   0x000fb0       data     extern C:\MCC18\v3_39\src\traditional\proc\p18F46K20.asm
                   SSPADD   0x000fc8       data     extern C:\MCC18\v3_39\src\traditional\proc\p18F46K20.asm
                   SSPBUF   0x000fc9       data     extern C:\MCC18\v3_39\src\traditional\proc\p18F46K20.asm
                  SSPCON1   0x000fc6       data     extern C:\MCC18\v3_39\src\traditional\proc\p18F46K20.asm
              SSPCON1bits   0x000fc6       data     extern C:\MCC18\v3_39\src\traditional\proc\p18F46K20.asm
                  SSPCON2   0x000fc5       data     extern C:\MCC18\v3_39\src\traditional\proc\p18F46K20.asm
              SSPCON2bits   0x000fc5       data     extern C:\MCC18\v3_39\src\traditional\proc\p18F46K20.asm
                   SSPMSK   0x000f77       data     extern C:\MCC18\v3_39\src\traditional\proc\p18F46K20.asm
               SSPMSKbits   0x000f77       data     extern C:\MCC18\v3_39\src\traditional\proc\p18F46K20.asm
                  SSPSTAT   0x000fc7       data     extern C:\MCC18\v3_39\src\traditional\proc\p18F46K20.asm
              SSPSTATbits   0x000fc7       data     extern C:\MCC18\v3_39\src\traditional\proc\p18F46K20.asm
                   STATUS   0x000fd8       data     extern C:\MCC18\v3_39\src\traditional\proc\p18F46K20.asm
               STATUSbits   0x000fd8       data     extern C:\MCC18\v3_39\src\traditional\proc\p18F46K20.asm
                   STKPTR   0x000ffc       data     extern C:\MCC18\v3_39\src\traditional\proc\p18F46K20.asm
               STKPTRbits   0x000ffc       data     extern C:\MCC18\v3_39\src\traditional\proc\p18F46K20.asm
                    T0CON   0x000fd5       data     extern C:\MCC18\v3_39\src\traditional\proc\p18F46K20.asm
                T0CONbits   0x000fd5       data     extern C:\MCC18\v3_39\src\traditional\proc\p18F46K20.asm
                    T1CON   0x000fcd       data     extern C:\MCC18\v3_39\src\traditional\proc\p18F46K20.asm
                T1CONbits   0x000fcd       data     extern C:\MCC18\v3_39\src\traditional\proc\p18F46K20.asm
                    T2CON   0x000fca       data     extern C:\MCC18\v3_39\src\traditional\proc\p18F46K20.asm
                T2CONbits   0x000fca       data     extern C:\MCC18\v3_39\src\traditional\proc\p18F46K20.asm
                    T3CON   0x000fb1       data     extern C:\MCC18\v3_39\src\traditional\proc\p18F46K20.asm
                T3CONbits   0x000fb1       data     extern C:\MCC18\v3_39\src\traditional\proc\p18F46K20.asm
                   TABLAT   0x000ff5       data     extern C:\MCC18\v3_39\src\traditional\proc\p18F46K20.asm
                   TBLPTR   0x000ff6       data     extern C:\MCC18\v3_39\src\traditional\proc\p18F46K20.asm
                  TBLPTRH   0x000ff7       data     extern C:\MCC18\v3_39\src\traditional\proc\p18F46K20.asm
                  TBLPTRL   0x000ff6       data     extern C:\MCC18\v3_39\src\traditional\proc\p18F46K20.asm
                  TBLPTRU   0x000ff8       data     extern C:\MCC18\v3_39\src\traditional\proc\p18F46K20.asm
                    TMR0H   0x000fd7       data     extern C:\MCC18\v3_39\src\traditional\proc\p18F46K20.asm
                    TMR0L   0x000fd6       data     extern C:\MCC18\v3_39\src\traditional\proc\p18F46K20.asm
                    TMR1H   0x000fcf       data     extern C:\MCC18\v3_39\src\traditional\proc\p18F46K20.asm
                    TMR1L   0x000fce       data     extern C:\MCC18\v3_39\src\traditional\proc\p18F46K20.asm
                     TMR2   0x000fcc       data     extern C:\MCC18\v3_39\src\traditional\proc\p18F46K20.asm
                    TMR3H   0x000fb3       data     extern C:\MCC18\v3_39\src\traditional\proc\p18F46K20.asm
                    TMR3L   0x000fb2       data     extern C:\MCC18\v3_39\src\traditional\proc\p18F46K20.asm
                      TOS   0x000ffd       data     extern C:\MCC18\v3_39\src\traditional\proc\p18F46K20.asm
                     TOSH   0x000ffe       data     extern C:\MCC18\v3_39\src\traditional\proc\p18F46K20.asm
                     TOSL   0x000ffd       data     extern C:\MCC18\v3_39\src\traditional\proc\p18F46K20.asm
                     TOSU   0x000fff       data     extern C:\MCC18\v3_39\src\traditional\proc\p18F46K20.asm
                    TRISA   0x000f92       data     extern C:\MCC18\v3_39\src\traditional\proc\p18F46K20.asm
                TRISAbits   0x000f92       data     extern C:\MCC18\v3_39\src\traditional\proc\p18F46K20.asm
                    TRISB   0x000f93       data     extern C:\MCC18\v3_39\src\traditional\proc\p18F46K20.asm
                TRISBbits   0x000f93       data     extern C:\MCC18\v3_39\src\traditional\proc\p18F46K20.asm
                    TRISC   0x000f94       data     extern C:\MCC18\v3_39\src\traditional\proc\p18F46K20.asm
                TRISCbits   0x000f94       data     extern C:\MCC18\v3_39\src\traditional\proc\p18F46K20.asm
                    TRISD   0x000f95       data     extern C:\MCC18\v3_39\src\traditional\proc\p18F46K20.asm
                TRISDbits   0x000f95       data     extern C:\MCC18\v3_39\src\traditional\proc\p18F46K20.asm
                    TRISE   0x000f96       data     extern C:\MCC18\v3_39\src\traditional\proc\p18F46K20.asm
                TRISEbits   0x000f96       data     extern C:\MCC18\v3_39\src\traditional\proc\p18F46K20.asm
                    TXREG   0x000fad       data     extern C:\MCC18\v3_39\src\traditional\proc\p18F46K20.asm
                    TXSTA   0x000fac       data     extern C:\MCC18\v3_39\src\traditional\proc\p18F46K20.asm
                TXSTAbits   0x000fac       data     extern C:\MCC18\v3_39\src\traditional\proc\p18F46K20.asm
             USART_Status   0x00007d       data     extern C:\MCC18\v3_39\src\pmc_common\USART\udefs.c
                     Uart   0x000f5e       data     extern /projet/faziasep/FEE/Step_4/conception/PIC/PIC_V4_OK/src/uartbuf.c
                        W   0x000fe8       data     extern C:\MCC18\v3_39\src\traditional\proc\p18F46K20.asm
                   WDTCON   0x000fd1       data     extern C:\MCC18\v3_39\src\traditional\proc\p18F46K20.asm
               WDTCONbits   0x000fd1       data     extern C:\MCC18\v3_39\src\traditional\proc\p18F46K20.asm
                     WPUB   0x000f7c       data     extern C:\MCC18\v3_39\src\traditional\proc\p18F46K20.asm
                 WPUBbits   0x000f7c       data     extern C:\MCC18\v3_39\src\traditional\proc\p18F46K20.asm
                     WREG   0x000fe8       data     extern C:\MCC18\v3_39\src\traditional\proc\p18F46K20.asm
                    _Uart   0x00057a       data     extern /projet/faziasep/FEE/Step_4/conception/PIC/PIC_V4_OK/src/uartbuf.c
                 __AARGB0   0x000009       data     extern C:\MCC18\v3_39\src\traditional\math\aarg.asm
                 __AARGB1   0x000008       data     extern C:\MCC18\v3_39\src\traditional\math\aarg.asm
                 __AARGB2   0x000007       data     extern C:\MCC18\v3_39\src\traditional\math\aarg.asm
                 __AARGB3   0x000006       data     extern C:\MCC18\v3_39\src\traditional\math\aarg.asm
                 __AARGB4   0x000005       data     extern C:\MCC18\v3_39\src\traditional\math\aarg.asm
                 __AARGB5   0x000004       data     extern C:\MCC18\v3_39\src\traditional\math\aarg.asm
                 __AARGB6   0x000003       data     extern C:\MCC18\v3_39\src\traditional\math\aarg.asm
                 __AARGB7   0x000002       data     extern C:\MCC18\v3_39\src\traditional\math\aarg.asm
                   __AEXP   0x00000a       data     extern C:\MCC18\v3_39\src\traditional\math\aarg.asm
                 __BARGB0   0x00000e       data     extern C:\MCC18\v3_39\src\traditional\math\barg.asm
                 __BARGB1   0x00000d       data     extern C:\MCC18\v3_39\src\traditional\math\barg.asm
                 __BARGB2   0x00000c       data     extern C:\MCC18\v3_39\src\traditional\math\barg.asm
                 __BARGB3   0x00000b       data     extern C:\MCC18\v3_39\src\traditional\math\barg.asm
                   __BEXP   0x00000f       data     extern C:\MCC18\v3_39\src\traditional\math\barg.asm
                __FPFLAGS   0x000001       data     extern C:\MCC18\v3_39\src\traditional\math\cmath18.asm
            __FPFLAGSbits   0x000001       data     extern C:\MCC18\v3_39\src\traditional\math\cmath18.asm
                  __REMB0   0x000005       data     extern C:\MCC18\v3_39\src\traditional\math\aarg.asm
                  __REMB1   0x000004       data     extern C:\MCC18\v3_39\src\traditional\math\aarg.asm
                  __REMB2   0x000003       data     extern C:\MCC18\v3_39\src\traditional\math\aarg.asm
                  __REMB3   0x000002       data     extern C:\MCC18\v3_39\src\traditional\math\aarg.asm
                   __TEMP   0x000013       data     extern C:\MCC18\v3_39\src\traditional\math\temparg.asm
                 __TEMPB0   0x000013       data     extern C:\MCC18\v3_39\src\traditional\math\temparg.asm
                 __TEMPB1   0x000012       data     extern C:\MCC18\v3_39\src\traditional\math\temparg.asm
                 __TEMPB2   0x000011       data     extern C:\MCC18\v3_39\src\traditional\math\temparg.asm
                 __TEMPB3   0x000010       data     extern C:\MCC18\v3_39\src\traditional\math\temparg.asm
                  __tmp_0   0x000014       data     static /projet/faziasep/FEE/Step_4/conception/PIC/PIC_V4_OK/src/myfunc/Tsensor.c
                  __tmp_0   0x000014       data     static /projet/faziasep/FEE/Step_4/conception/PIC/PIC_V4_OK/src/myfunc/spi.c
                  __tmp_0   0x000014       data     static /projet/faziasep/FEE/Step_4/conception/PIC/PIC_V4_OK/src/myfunc/display.c
                  __tmp_0   0x000014       data     static /projet/faziasep/FEE/Step_4/conception/PIC/PIC_V4_OK/src/myfunc/wr_eeprom.c
                  __tmp_0   0x000014       data     static /projet/faziasep/FEE/Step_4/conception/PIC/PIC_V4_OK/src/myfunc/maths.c
                  __tmp_0   0x000014       data     static /projet/faziasep/FEE/Step_4/conception/PIC/PIC_V4_OK/src/myfunc/dac8568.c
                  __tmp_0   0x000014       data     static /projet/faziasep/FEE/Step_4/conception/PIC/PIC_V4_OK/src/myfunc/ads8332.c
                  __tmp_0   0x000014       data     static /projet/faziasep/FEE/Step_4/conception/PIC/PIC_V4_OK/src/myfunc/analog.c
                  __tmp_0   0x000014       data     static C:\MCC18\v3_39\src\pmc_common\Timers\t1read.c
                  __tmp_0   0x000014       data     static /projet/faziasep/FEE/Step_4/conception/PIC/PIC_V4_OK/src/utils.c
                  __tmp_0   0x000014       data     static /projet/faziasep/FEE/Step_4/conception/PIC/PIC_V4_OK/src/functions.c
                  __tmp_0   0x000014       data     static /projet/faziasep/FEE/Step_4/conception/PIC/PIC_V4_OK/src/main.c
                  __tmp_0   0x000014       data     static /projet/faziasep/FEE/Step_4/conception/PIC/PIC_V4_OK/src/setup.c
                  __tmp_0   0x000014       data     static /projet/faziasep/FEE/Step_4/conception/PIC/PIC_V4_OK/src/cbuffer.c
                  __tmp_0   0x000014       data     static /projet/faziasep/FEE/Step_4/conception/PIC/PIC_V4_OK/src/uartbuf.c
                  __tmp_0   0x000014       data     static /projet/faziasep/FEE/Step_4/conception/PIC/PIC_V4_OK/src/frame.c
                  __tmp_1   0x000026       data     static /projet/faziasep/FEE/Step_4/conception/PIC/PIC_V4_OK/src/isr.c
            borne_lim_inf   0x000062       data     static /projet/faziasep/FEE/Step_4/conception/PIC/PIC_V4_OK/src/main.c
            borne_lim_sup   0x000066       data     static /projet/faziasep/FEE/Step_4/conception/PIC/PIC_V4_OK/src/main.c
             both_fpga_ok   0x000076       data     extern /projet/faziasep/FEE/Step_4/conception/PIC/PIC_V4_OK/src/main.c
      cal_preampli_offset   0x0004f0       data     extern /projet/faziasep/FEE/Step_4/conception/PIC/PIC_V4_OK/src/main.c
                    canal   0x000060       data     static /projet/faziasep/FEE/Step_4/conception/PIC/PIC_V4_OK/src/main.c
                    canal   0x000f49       data     static /projet/faziasep/FEE/Step_4/conception/PIC/PIC_V4_OK/src/functions.c
                    canal   0x000f48       data     static /projet/faziasep/FEE/Step_4/conception/PIC/PIC_V4_OK/src/functions.c
                       ch   0x00007e       data     static /projet/faziasep/FEE/Step_4/conception/PIC/PIC_V4_OK/src/isr.c
                    check   0x000077       data     extern /projet/faziasep/FEE/Step_4/conception/PIC/PIC_V4_OK/src/main.c
                      cmd   0x0004aa       data     extern /projet/faziasep/FEE/Step_4/conception/PIC/PIC_V4_OK/src/main.c
                   cmdres   0x0004ab       data     extern /projet/faziasep/FEE/Step_4/conception/PIC/PIC_V4_OK/src/main.c
                       co   0x000489       data     extern /projet/faziasep/FEE/Step_4/conception/PIC/PIC_V4_OK/src/main.c
                 coefA_A1   0x0004fe       data     extern /projet/faziasep/FEE/Step_4/conception/PIC/PIC_V4_OK/src/main.c
                 coefA_A2   0x000502       data     extern /projet/faziasep/FEE/Step_4/conception/PIC/PIC_V4_OK/src/main.c
                 coefA_B1   0x000506       data     extern /projet/faziasep/FEE/Step_4/conception/PIC/PIC_V4_OK/src/main.c
                 coefA_B2   0x00050a       data     extern /projet/faziasep/FEE/Step_4/conception/PIC/PIC_V4_OK/src/main.c
                 coefB_A1   0x00050e       data     extern /projet/faziasep/FEE/Step_4/conception/PIC/PIC_V4_OK/src/main.c
                 coefB_A2   0x000512       data     extern /projet/faziasep/FEE/Step_4/conception/PIC/PIC_V4_OK/src/main.c
                 coefB_B1   0x000516       data     extern /projet/faziasep/FEE/Step_4/conception/PIC/PIC_V4_OK/src/main.c
                 coefB_B2   0x00051a       data     extern /projet/faziasep/FEE/Step_4/conception/PIC/PIC_V4_OK/src/main.c
                      crc   0x0004ae       data     extern /projet/faziasep/FEE/Step_4/conception/PIC/PIC_V4_OK/src/main.c
                curr_byte   0x00006f       data     static C:\MCC18\v3_39\src\traditional\startup\c018i.c
               curr_entry   0x000071       data     static C:\MCC18\v3_39\src\traditional\startup\c018i.c
                     data   0x000f56       data     static /projet/faziasep/FEE/Step_4/conception/PIC/PIC_V4_OK/src/myfunc/ads8332.c
                     data   0x000312       data     extern /projet/faziasep/FEE/Step_4/conception/PIC/PIC_V4_OK/src/main.c
                 data_ptr   0x000073       data     static C:\MCC18\v3_39\src\traditional\startup\c018i.c
              default_DA1   0x0004f2       data     extern /projet/faziasep/FEE/Step_4/conception/PIC/PIC_V4_OK/src/main.c
              default_DA2   0x0004f3       data     extern /projet/faziasep/FEE/Step_4/conception/PIC/PIC_V4_OK/src/main.c
              default_DB1   0x0004f4       data     extern /projet/faziasep/FEE/Step_4/conception/PIC/PIC_V4_OK/src/main.c
              default_DB2   0x0004f5       data     extern /projet/faziasep/FEE/Step_4/conception/PIC/PIC_V4_OK/src/main.c
                    docrc   0x0004b0       data     extern /projet/faziasep/FEE/Step_4/conception/PIC/PIC_V4_OK/src/main.c
                     done   0x00045c       data     extern /projet/faziasep/FEE/Step_4/conception/PIC/PIC_V4_OK/src/main.c
                    done2   0x00045d       data     extern /projet/faziasep/FEE/Step_4/conception/PIC/PIC_V4_OK/src/main.c
                    done3   0x00045e       data     extern /projet/faziasep/FEE/Step_4/conception/PIC/PIC_V4_OK/src/main.c
                    done4   0x00045f       data     extern /projet/faziasep/FEE/Step_4/conception/PIC/PIC_V4_OK/src/main.c
                    done6   0x000461       data     extern /projet/faziasep/FEE/Step_4/conception/PIC/PIC_V4_OK/src/main.c
                    done7   0x000462       data     extern /projet/faziasep/FEE/Step_4/conception/PIC/PIC_V4_OK/src/main.c
                 done_ins   0x000460       data     extern /projet/faziasep/FEE/Step_4/conception/PIC/PIC_V4_OK/src/main.c
             enableHVMeas   0x0004c3       data     extern /projet/faziasep/FEE/Step_4/conception/PIC/PIC_V4_OK/src/main.c
                      fIn   0x000100       data     extern /projet/faziasep/FEE/Step_4/conception/PIC/PIC_V4_OK/src/main.c
                     fOut   0x000209       data     extern /projet/faziasep/FEE/Step_4/conception/PIC/PIC_V4_OK/src/main.c
                     ferr   0x0004b6       data     extern /projet/faziasep/FEE/Step_4/conception/PIC/PIC_V4_OK/src/main.c
                   finish   0x000079       data     static /projet/faziasep/FEE/Step_4/conception/PIC/PIC_V4_OK/src/main.c
                     flen   0x0004b2       data     extern /projet/faziasep/FEE/Step_4/conception/PIC/PIC_V4_OK/src/main.c
                  foffset   0x0004b4       data     extern /projet/faziasep/FEE/Step_4/conception/PIC/PIC_V4_OK/src/main.c
                   fplist   0x000f00       data     extern /projet/faziasep/FEE/Step_4/conception/PIC/PIC_V4_OK/src/functions.c
                     fpre   0x000452       data     extern /projet/faziasep/FEE/Step_4/conception/PIC/PIC_V4_OK/src/main.c
                  funcres   0x0004ac       data     extern /projet/faziasep/FEE/Step_4/conception/PIC/PIC_V4_OK/src/main.c
           get_data_fpga1   0x00048e       data     extern /projet/faziasep/FEE/Step_4/conception/PIC/PIC_V4_OK/src/main.c
                        i   0x000061       data     static /projet/faziasep/FEE/Step_4/conception/PIC/PIC_V4_OK/src/main.c
                        i   0x0004a4       data     extern /projet/faziasep/FEE/Step_4/conception/PIC/PIC_V4_OK/src/main.c
                      idb   0x0004a7       data     extern /projet/faziasep/FEE/Step_4/conception/PIC/PIC_V4_OK/src/main.c
                      ids   0x0004a9       data     extern /projet/faziasep/FEE/Step_4/conception/PIC/PIC_V4_OK/src/main.c
                       kw   0x0004a6       data     extern /projet/faziasep/FEE/Step_4/conception/PIC/PIC_V4_OK/src/main.c
                     lcA1   0x000552       data     extern /projet/faziasep/FEE/Step_4/conception/PIC/PIC_V4_OK/src/main.c
                     lcA2   0x000554       data     extern /projet/faziasep/FEE/Step_4/conception/PIC/PIC_V4_OK/src/main.c
              lcAdcReadA1   0x000469       data     extern /projet/faziasep/FEE/Step_4/conception/PIC/PIC_V4_OK/src/main.c
              lcAdcReadA2   0x00046d       data     extern /projet/faziasep/FEE/Step_4/conception/PIC/PIC_V4_OK/src/main.c
              lcAdcReadB1   0x000471       data     extern /projet/faziasep/FEE/Step_4/conception/PIC/PIC_V4_OK/src/main.c
              lcAdcReadB2   0x000475       data     extern /projet/faziasep/FEE/Step_4/conception/PIC/PIC_V4_OK/src/main.c
                     lcB1   0x000556       data     extern /projet/faziasep/FEE/Step_4/conception/PIC/PIC_V4_OK/src/main.c
                     lcB2   0x000558       data     extern /projet/faziasep/FEE/Step_4/conception/PIC/PIC_V4_OK/src/main.c
          leakage_current   0x000f4a       data     static /projet/faziasep/FEE/Step_4/conception/PIC/PIC_V4_OK/src/myfunc/ads8332.c
       leakage_current_na   0x000f4e       data     static /projet/faziasep/FEE/Step_4/conception/PIC/PIC_V4_OK/src/myfunc/ads8332.c
           longInspecTime   0x000566       data     extern /projet/faziasep/FEE/Step_4/conception/PIC/PIC_V4_OK/src/main.c
          marge_pa_offset   0x0004f1       data     extern /projet/faziasep/FEE/Step_4/conception/PIC/PIC_V4_OK/src/main.c
                      max   0x00056c       data     extern /projet/faziasep/FEE/Step_4/conception/PIC/PIC_V4_OK/src/main.c
                     mmax   0x000490       data     extern /projet/faziasep/FEE/Step_4/conception/PIC/PIC_V4_OK/src/main.c
                      myC   0x0004b8       data     extern /projet/faziasep/FEE/Step_4/conception/PIC/PIC_V4_OK/src/main.c
                       pa   0x00056e       data     extern /projet/faziasep/FEE/Step_4/conception/PIC/PIC_V4_OK/src/main.c
                     prom   0x00006c       data     static C:\MCC18\v3_39\src\traditional\startup\c018i.c
            rd_data_fpga1   0x00048a       data     extern /projet/faziasep/FEE/Step_4/conception/PIC/PIC_V4_OK/src/main.c
            rd_data_fpga2   0x00048c       data     extern /projet/faziasep/FEE/Step_4/conception/PIC/PIC_V4_OK/src/main.c
                   result   0x000412       data     extern /projet/faziasep/FEE/Step_4/conception/PIC/PIC_V4_OK/src/main.c
                      seq   0x0004ad       data     extern /projet/faziasep/FEE/Step_4/conception/PIC/PIC_V4_OK/src/main.c
                 sequence   0x000f5c       data     static /projet/faziasep/FEE/Step_4/conception/PIC/PIC_V4_OK/src/myfunc/ads8332.c
          shortInspecTime   0x000562       data     extern /projet/faziasep/FEE/Step_4/conception/PIC/PIC_V4_OK/src/main.c
                    state   0x000078       data     static /projet/faziasep/FEE/Step_4/conception/PIC/PIC_V4_OK/src/main.c
        temperature_array   0x00047d       data     extern /projet/faziasep/FEE/Step_4/conception/PIC/PIC_V4_OK/src/main.c
                time_bit0   0x000526       data     extern /projet/faziasep/FEE/Step_4/conception/PIC/PIC_V4_OK/src/main.c
                time_bit1   0x000527       data     extern /projet/faziasep/FEE/Step_4/conception/PIC/PIC_V4_OK/src/main.c
             time_lc_prec   0x00055e       data     extern /projet/faziasep/FEE/Step_4/conception/PIC/PIC_V4_OK/src/main.c
               time_reset   0x000524       data     extern /projet/faziasep/FEE/Step_4/conception/PIC/PIC_V4_OK/src/main.c
          time_scheduling   0x00052a       data     extern /projet/faziasep/FEE/Step_4/conception/PIC/PIC_V4_OK/src/main.c
     time_scheduling_copy   0x00052e       data     extern /projet/faziasep/FEE/Step_4/conception/PIC/PIC_V4_OK/src/main.c
               time_start   0x000525       data     extern /projet/faziasep/FEE/Step_4/conception/PIC/PIC_V4_OK/src/main.c
                time_wait   0x000528       data     extern /projet/faziasep/FEE/Step_4/conception/PIC/PIC_V4_OK/src/main.c
        timing_inspection   0x00055a       data     extern /projet/faziasep/FEE/Step_4/conception/PIC/PIC_V4_OK/src/main.c
                      tns   0x000f52       data     static /projet/faziasep/FEE/Step_4/conception/PIC/PIC_V4_OK/src/myfunc/ads8332.c
            tsensor_1_max   0x000520       data     extern /projet/faziasep/FEE/Step_4/conception/PIC/PIC_V4_OK/src/main.c
            tsensor_1_min   0x00051e       data     extern /projet/faziasep/FEE/Step_4/conception/PIC/PIC_V4_OK/src/main.c
            tsensor_limit   0x000522       data     extern /projet/faziasep/FEE/Step_4/conception/PIC/PIC_V4_OK/src/main.c
             valeur_portA   0x0004ba       data     extern /projet/faziasep/FEE/Step_4/conception/PIC/PIC_V4_OK/src/main.c
             valeur_portB   0x0004bc       data     extern /projet/faziasep/FEE/Step_4/conception/PIC/PIC_V4_OK/src/main.c
             valeur_portC   0x0004be       data     extern /projet/faziasep/FEE/Step_4/conception/PIC/PIC_V4_OK/src/main.c
             valeur_portD   0x0004c0       data     extern /projet/faziasep/FEE/Step_4/conception/PIC/PIC_V4_OK/src/main.c
             valeur_trisA   0x0004bb       data     extern /projet/faziasep/FEE/Step_4/conception/PIC/PIC_V4_OK/src/main.c
             valeur_trisB   0x0004bd       data     extern /projet/faziasep/FEE/Step_4/conception/PIC/PIC_V4_OK/src/main.c
             valeur_trisC   0x0004bf       data     extern /projet/faziasep/FEE/Step_4/conception/PIC/PIC_V4_OK/src/main.c
             valeur_trisD   0x0004c1       data     extern /projet/faziasep/FEE/Step_4/conception/PIC/PIC_V4_OK/src/main.c
             valeur_trisE   0x0004c2       data     extern /projet/faziasep/FEE/Step_4/conception/PIC/PIC_V4_OK/src/main.c
                    value   0x000f58       data     static /projet/faziasep/FEE/Step_4/conception/PIC/PIC_V4_OK/src/myfunc/ads8332.c
                    value   0x00006a       data     static /projet/faziasep/FEE/Step_4/conception/PIC/PIC_V4_OK/src/main.c
                   value2   0x000f5a       data     static /projet/faziasep/FEE/Step_4/conception/PIC/PIC_V4_OK/src/myfunc/ads8332.c



                              Symbols - Sorted by Address
                     Name    Address   Location    Storage File                     
                ---------  ---------  ---------  --------- ---------                
                   _entry   0x000000    program     extern C:\MCC18\v3_39\src\traditional\startup\c018i.c
       ___return_lbl00000   0x000004    program     static                          
                   __init   0x000006    program     extern C:\MCC18\v3_39\src\traditional\stdclib\__init.c
                      isr   0x000008    program     extern /projet/faziasep/FEE/Step_4/conception/PIC/PIC_V4_OK/src/isr.c
           ___if_lbl00001   0x000092    program     static                          
           ___if_lbl00002   0x0000a4    program     static                          
        ___while_lbl00004   0x0000dc    program     static                          
           ___if_lbl00003   0x0000dc    program     static                          
               __tmplbl_1   0x0000e6    program     static                          
               __tmplbl_0   0x0000ec    program     static                          
           ___if_lbl00007   0x0000f6    program     static                          
           ___if_lbl00008   0x000236    program     static                          
        ___while_lbl00005   0x000238    program     static                          
       ___return_lbl00000   0x00023a    program     static                          
           ___if_lbl00009   0x00023a    program     static                          
                func_init   0x0002a6    program     extern /projet/faziasep/FEE/Step_4/conception/PIC/PIC_V4_OK/src/functions.c
              func_invoke   0x0003ca    program     extern /projet/faziasep/FEE/Step_4/conception/PIC/PIC_V4_OK/src/functions.c
                   f_echo   0x00045e    program     extern /projet/faziasep/FEE/Step_4/conception/PIC/PIC_V4_OK/src/functions.c
                 resetPIC   0x00047a    program     extern /projet/faziasep/FEE/Step_4/conception/PIC/PIC_V4_OK/src/functions.c
       ___return_lbl00006   0x0004d6    program     static                          
                 setGetSN   0x0004e2    program     extern /projet/faziasep/FEE/Step_4/conception/PIC/PIC_V4_OK/src/functions.c
           uart_csi_relay   0x0005c2    program     extern /projet/faziasep/FEE/Step_4/conception/PIC/PIC_V4_OK/src/functions.c
     uart_reset_both_fpga   0x0005fe    program     extern /projet/faziasep/FEE/Step_4/conception/PIC/PIC_V4_OK/src/functions.c
             giveHvStatus   0x00060e    program     extern /projet/faziasep/FEE/Step_4/conception/PIC/PIC_V4_OK/src/functions.c
               setHVCsiAB   0x0006b0    program     extern /projet/faziasep/FEE/Step_4/conception/PIC/PIC_V4_OK/src/functions.c
        preamplifier_test   0x00073c    program     extern /projet/faziasep/FEE/Step_4/conception/PIC/PIC_V4_OK/src/functions.c
   uart_preamplifier_test   0x000ad8    program     extern /projet/faziasep/FEE/Step_4/conception/PIC/PIC_V4_OK/src/functions.c
             setautoffset   0x000bcc    program     extern /projet/faziasep/FEE/Step_4/conception/PIC/PIC_V4_OK/src/functions.c
               enDesHVdev   0x000c66    program     extern /projet/faziasep/FEE/Step_4/conception/PIC/PIC_V4_OK/src/functions.c
        getGeneDacVoltage   0x000dbe    program     extern /projet/faziasep/FEE/Step_4/conception/PIC/PIC_V4_OK/src/functions.c
               getCurrent   0x000dde    program     extern /projet/faziasep/FEE/Step_4/conception/PIC/PIC_V4_OK/src/functions.c
                   get_HV   0x000e66    program     extern /projet/faziasep/FEE/Step_4/conception/PIC/PIC_V4_OK/src/functions.c
               getHvValue   0x00101e    program     extern /projet/faziasep/FEE/Step_4/conception/PIC/PIC_V4_OK/src/functions.c
         get_fpga_version   0x00122c    program     extern /projet/faziasep/FEE/Step_4/conception/PIC/PIC_V4_OK/src/functions.c
                 nullFunc   0x0013f2    program     extern /projet/faziasep/FEE/Step_4/conception/PIC/PIC_V4_OK/src/functions.c
              get_ads8332   0x0013fa    program     extern /projet/faziasep/FEE/Step_4/conception/PIC/PIC_V4_OK/src/functions.c
          get_pic_version   0x00148e    program     extern /projet/faziasep/FEE/Step_4/conception/PIC/PIC_V4_OK/src/functions.c
         get_leak_current   0x0014ac    program     extern /projet/faziasep/FEE/Step_4/conception/PIC/PIC_V4_OK/src/functions.c
     set_pulse_parameters   0x001564    program     extern /projet/faziasep/FEE/Step_4/conception/PIC/PIC_V4_OK/src/functions.c
 set_voltage_preamplifier   0x001742    program     extern /projet/faziasep/FEE/Step_4/conception/PIC/PIC_V4_OK/src/functions.c
                 incdecHV   0x001896    program     extern /projet/faziasep/FEE/Step_4/conception/PIC/PIC_V4_OK/src/functions.c
            getInspecTime   0x001b2a    program     extern /projet/faziasep/FEE/Step_4/conception/PIC/PIC_V4_OK/src/functions.c
             getSoftStack   0x001b96    program     extern /projet/faziasep/FEE/Step_4/conception/PIC/PIC_V4_OK/src/functions.c
            setInspecTime   0x001bb6    program     extern /projet/faziasep/FEE/Step_4/conception/PIC/PIC_V4_OK/src/functions.c
                  set_vhv   0x001d1e    program     extern /projet/faziasep/FEE/Step_4/conception/PIC/PIC_V4_OK/src/functions.c
                 get_temp   0x001fc8    program     extern /projet/faziasep/FEE/Step_4/conception/PIC/PIC_V4_OK/src/functions.c
                get_hvmax   0x002082    program     extern /projet/faziasep/FEE/Step_4/conception/PIC/PIC_V4_OK/src/functions.c
              apply_hvmax   0x002154    program     extern /projet/faziasep/FEE/Step_4/conception/PIC/PIC_V4_OK/src/functions.c
      enableDisableHVMeas   0x00226c    program     extern /projet/faziasep/FEE/Step_4/conception/PIC/PIC_V4_OK/src/functions.c
                set_hvmax   0x0022dc    program     extern /projet/faziasep/FEE/Step_4/conception/PIC/PIC_V4_OK/src/functions.c
  uart_ask_hv_calibration   0x00238e    program     extern /projet/faziasep/FEE/Step_4/conception/PIC/PIC_V4_OK/src/functions.c
              store_param   0x0023cc    program     extern /projet/faziasep/FEE/Step_4/conception/PIC/PIC_V4_OK/src/functions.c
  set_data_eeprom_address   0x0023d6    program     extern /projet/faziasep/FEE/Step_4/conception/PIC/PIC_V4_OK/src/functions.c
  get_data_eeprom_address   0x002474    program     extern /projet/faziasep/FEE/Step_4/conception/PIC/PIC_V4_OK/src/functions.c
         spi_get_regvalue   0x00250c    program     extern /projet/faziasep/FEE/Step_4/conception/PIC/PIC_V4_OK/src/functions.c
         spi_set_regvalue   0x002592    program     extern /projet/faziasep/FEE/Step_4/conception/PIC/PIC_V4_OK/src/functions.c
                   __pa_0   0x002642    program     static /projet/faziasep/FEE/Step_4/conception/PIC/PIC_V4_OK/src/functions.c
                   __pa_1   0x002648    program     static /projet/faziasep/FEE/Step_4/conception/PIC/PIC_V4_OK/src/functions.c
                   __pa_2   0x00264e    program     static /projet/faziasep/FEE/Step_4/conception/PIC/PIC_V4_OK/src/functions.c
                   __pa_3   0x002658    program     static /projet/faziasep/FEE/Step_4/conception/PIC/PIC_V4_OK/src/functions.c
                   __pa_4   0x00265e    program     static /projet/faziasep/FEE/Step_4/conception/PIC/PIC_V4_OK/src/functions.c
                   __pa_5   0x00266a    program     static /projet/faziasep/FEE/Step_4/conception/PIC/PIC_V4_OK/src/functions.c
                   __pa_6   0x002676    program     static /projet/faziasep/FEE/Step_4/conception/PIC/PIC_V4_OK/src/functions.c
             __tmplbl_269   0x00267c    program     static                          
             __tmplbl_268   0x00267c    program     static                          
             __tmplbl_258   0x00267c    program     static                          
             __tmplbl_257   0x00267c    program     static                          
             __tmplbl_255   0x00267c    program     static                          
             __tmplbl_253   0x00267c    program     static                          
             __tmplbl_251   0x00267c    program     static                          
             __tmplbl_250   0x00267c    program     static                          
             __tmplbl_231   0x00267c    program     static                          
             __tmplbl_249   0x00267c    program     static                          
                   __pa_7   0x00267c    program     static /projet/faziasep/FEE/Step_4/conception/PIC/PIC_V4_OK/src/functions.c
             __tmplbl_232   0x00267c    program     static                          
             __tmplbl_246   0x00267c    program     static                          
             __tmplbl_233   0x00267c    program     static                          
             __tmplbl_234   0x00267c    program     static                          
             __tmplbl_235   0x00267c    program     static                          
             __tmplbl_245   0x00267c    program     static                          
             __tmplbl_236   0x00267c    program     static                          
             __tmplbl_244   0x00267c    program     static                          
             __tmplbl_237   0x00267c    program     static                          
             __tmplbl_267   0x00267c    program     static                          
             __tmplbl_266   0x00267c    program     static                          
             __tmplbl_264   0x00267c    program     static                          
             __tmplbl_263   0x00267c    program     static                          
             __tmplbl_261   0x00267c    program     static                          
             __tmplbl_260   0x00267c    program     static                          
             __tmplbl_259   0x00267c    program     static                          
                   __pa_8   0x002688    program     static /projet/faziasep/FEE/Step_4/conception/PIC/PIC_V4_OK/src/functions.c
                   __pa_9   0x00268e    program     static /projet/faziasep/FEE/Step_4/conception/PIC/PIC_V4_OK/src/functions.c
                  __pa_10   0x002698    program     static /projet/faziasep/FEE/Step_4/conception/PIC/PIC_V4_OK/src/functions.c
                  __pa_11   0x0026a0    program     static /projet/faziasep/FEE/Step_4/conception/PIC/PIC_V4_OK/src/functions.c
                  __pa_12   0x0026ac    program     static /projet/faziasep/FEE/Step_4/conception/PIC/PIC_V4_OK/src/functions.c
                  __pa_13   0x0026b2    program     static /projet/faziasep/FEE/Step_4/conception/PIC/PIC_V4_OK/src/functions.c
                  __pa_14   0x0026e6    program     static /projet/faziasep/FEE/Step_4/conception/PIC/PIC_V4_OK/src/functions.c
                  __pa_15   0x0026ee    program     static /projet/faziasep/FEE/Step_4/conception/PIC/PIC_V4_OK/src/functions.c
                  __pa_16   0x0026f6    program     static /projet/faziasep/FEE/Step_4/conception/PIC/PIC_V4_OK/src/functions.c
                  __pa_17   0x0026fe    program     static /projet/faziasep/FEE/Step_4/conception/PIC/PIC_V4_OK/src/functions.c
                  __pa_18   0x00270e    program     static /projet/faziasep/FEE/Step_4/conception/PIC/PIC_V4_OK/src/functions.c
                  __pa_19   0x002718    program     static /projet/faziasep/FEE/Step_4/conception/PIC/PIC_V4_OK/src/functions.c
                  __pa_20   0x00271e    program     static /projet/faziasep/FEE/Step_4/conception/PIC/PIC_V4_OK/src/functions.c
                  __pa_21   0x002724    program     static /projet/faziasep/FEE/Step_4/conception/PIC/PIC_V4_OK/src/functions.c
                  __pa_22   0x002734    program     static /projet/faziasep/FEE/Step_4/conception/PIC/PIC_V4_OK/src/functions.c
                  __pa_23   0x002752    program     static /projet/faziasep/FEE/Step_4/conception/PIC/PIC_V4_OK/src/functions.c
                  __pa_24   0x00275c    program     static /projet/faziasep/FEE/Step_4/conception/PIC/PIC_V4_OK/src/functions.c
                  __pa_25   0x00276a    program     static /projet/faziasep/FEE/Step_4/conception/PIC/PIC_V4_OK/src/functions.c
                  __pa_26   0x002778    program     static /projet/faziasep/FEE/Step_4/conception/PIC/PIC_V4_OK/src/functions.c
                  __pa_27   0x00278a    program     static /projet/faziasep/FEE/Step_4/conception/PIC/PIC_V4_OK/src/functions.c
                  __pa_28   0x002794    program     static /projet/faziasep/FEE/Step_4/conception/PIC/PIC_V4_OK/src/functions.c
                  __pa_29   0x0027a0    program     static /projet/faziasep/FEE/Step_4/conception/PIC/PIC_V4_OK/src/functions.c
                  __pa_30   0x0027b6    program     static /projet/faziasep/FEE/Step_4/conception/PIC/PIC_V4_OK/src/functions.c
                  __pa_31   0x0027c4    program     static /projet/faziasep/FEE/Step_4/conception/PIC/PIC_V4_OK/src/functions.c
                  __pa_32   0x0027d4    program     static /projet/faziasep/FEE/Step_4/conception/PIC/PIC_V4_OK/src/functions.c
                  __pa_33   0x0027e4    program     static /projet/faziasep/FEE/Step_4/conception/PIC/PIC_V4_OK/src/functions.c
                  __pa_34   0x0027f2    program     static /projet/faziasep/FEE/Step_4/conception/PIC/PIC_V4_OK/src/functions.c
                  __pa_35   0x0027fc    program     static /projet/faziasep/FEE/Step_4/conception/PIC/PIC_V4_OK/src/functions.c
                  __pa_36   0x002806    program     static /projet/faziasep/FEE/Step_4/conception/PIC/PIC_V4_OK/src/functions.c
                  __pa_37   0x002820    program     static /projet/faziasep/FEE/Step_4/conception/PIC/PIC_V4_OK/src/functions.c
                  __pa_38   0x00282c    program     static /projet/faziasep/FEE/Step_4/conception/PIC/PIC_V4_OK/src/functions.c
                  __pa_39   0x00283a    program     static /projet/faziasep/FEE/Step_4/conception/PIC/PIC_V4_OK/src/functions.c
                  __pa_40   0x002848    program     static /projet/faziasep/FEE/Step_4/conception/PIC/PIC_V4_OK/src/functions.c
                  __pa_41   0x002856    program     static /projet/faziasep/FEE/Step_4/conception/PIC/PIC_V4_OK/src/functions.c
                  __pa_42   0x002864    program     static /projet/faziasep/FEE/Step_4/conception/PIC/PIC_V4_OK/src/functions.c
                  __pa_43   0x002872    program     static /projet/faziasep/FEE/Step_4/conception/PIC/PIC_V4_OK/src/functions.c
                  __pa_44   0x002878    program     static /projet/faziasep/FEE/Step_4/conception/PIC/PIC_V4_OK/src/functions.c
                  __pa_45   0x00288a    program     static /projet/faziasep/FEE/Step_4/conception/PIC/PIC_V4_OK/src/functions.c
                  __pa_46   0x002894    program     static /projet/faziasep/FEE/Step_4/conception/PIC/PIC_V4_OK/src/functions.c
                  __pa_47   0x00289e    program     static /projet/faziasep/FEE/Step_4/conception/PIC/PIC_V4_OK/src/functions.c
                  __pa_48   0x0028aa    program     static /projet/faziasep/FEE/Step_4/conception/PIC/PIC_V4_OK/src/functions.c
                  __pa_49   0x0028b8    program     static /projet/faziasep/FEE/Step_4/conception/PIC/PIC_V4_OK/src/functions.c
                  __pa_50   0x0028c0    program     static /projet/faziasep/FEE/Step_4/conception/PIC/PIC_V4_OK/src/functions.c
                  __pa_51   0x0028c8    program     static /projet/faziasep/FEE/Step_4/conception/PIC/PIC_V4_OK/src/functions.c
                  __pa_52   0x0028d0    program     static /projet/faziasep/FEE/Step_4/conception/PIC/PIC_V4_OK/src/functions.c
                  __pa_53   0x0028dc    program     static /projet/faziasep/FEE/Step_4/conception/PIC/PIC_V4_OK/src/functions.c
                  __pa_54   0x0028ee    program     static /projet/faziasep/FEE/Step_4/conception/PIC/PIC_V4_OK/src/functions.c
                  __pa_55   0x002900    program     static /projet/faziasep/FEE/Step_4/conception/PIC/PIC_V4_OK/src/functions.c
                  __pa_56   0x002912    program     static /projet/faziasep/FEE/Step_4/conception/PIC/PIC_V4_OK/src/functions.c
                  __pa_57   0x002924    program     static /projet/faziasep/FEE/Step_4/conception/PIC/PIC_V4_OK/src/functions.c
                  __pa_58   0x00292e    program     static /projet/faziasep/FEE/Step_4/conception/PIC/PIC_V4_OK/src/functions.c
                  __pa_59   0x002938    program     static /projet/faziasep/FEE/Step_4/conception/PIC/PIC_V4_OK/src/functions.c
                  __pa_60   0x00294a    program     static /projet/faziasep/FEE/Step_4/conception/PIC/PIC_V4_OK/src/functions.c
                  __pa_61   0x002956    program     static /projet/faziasep/FEE/Step_4/conception/PIC/PIC_V4_OK/src/functions.c
                  __pa_62   0x002962    program     static /projet/faziasep/FEE/Step_4/conception/PIC/PIC_V4_OK/src/functions.c
                  __pa_63   0x00296e    program     static /projet/faziasep/FEE/Step_4/conception/PIC/PIC_V4_OK/src/functions.c
                  __pa_64   0x00297a    program     static /projet/faziasep/FEE/Step_4/conception/PIC/PIC_V4_OK/src/functions.c
                  __pa_65   0x002980    program     static /projet/faziasep/FEE/Step_4/conception/PIC/PIC_V4_OK/src/functions.c
                  __pa_66   0x00298c    program     static /projet/faziasep/FEE/Step_4/conception/PIC/PIC_V4_OK/src/functions.c
                  __pa_67   0x002998    program     static /projet/faziasep/FEE/Step_4/conception/PIC/PIC_V4_OK/src/functions.c
                  __pa_68   0x0029a2    program     static /projet/faziasep/FEE/Step_4/conception/PIC/PIC_V4_OK/src/functions.c
                  __pa_69   0x0029ac    program     static /projet/faziasep/FEE/Step_4/conception/PIC/PIC_V4_OK/src/functions.c
                  __pa_70   0x0029b6    program     static /projet/faziasep/FEE/Step_4/conception/PIC/PIC_V4_OK/src/functions.c
                  __pa_71   0x0029c0    program     static /projet/faziasep/FEE/Step_4/conception/PIC/PIC_V4_OK/src/functions.c
                  __pa_72   0x0029ca    program     static /projet/faziasep/FEE/Step_4/conception/PIC/PIC_V4_OK/src/functions.c
                  __pa_73   0x0029d4    program     static /projet/faziasep/FEE/Step_4/conception/PIC/PIC_V4_OK/src/functions.c
                  __pa_74   0x0029dc    program     static /projet/faziasep/FEE/Step_4/conception/PIC/PIC_V4_OK/src/functions.c
                  __pa_75   0x0029ec    program     static /projet/faziasep/FEE/Step_4/conception/PIC/PIC_V4_OK/src/functions.c
                  __pa_76   0x0029fa    program     static /projet/faziasep/FEE/Step_4/conception/PIC/PIC_V4_OK/src/functions.c
                  __pa_77   0x002a0a    program     static /projet/faziasep/FEE/Step_4/conception/PIC/PIC_V4_OK/src/functions.c
                  __pa_78   0x002a12    program     static /projet/faziasep/FEE/Step_4/conception/PIC/PIC_V4_OK/src/functions.c
                  __pa_79   0x002a20    program     static /projet/faziasep/FEE/Step_4/conception/PIC/PIC_V4_OK/src/functions.c
                  __pa_80   0x002a2e    program     static /projet/faziasep/FEE/Step_4/conception/PIC/PIC_V4_OK/src/functions.c
                  __pa_81   0x002a3c    program     static /projet/faziasep/FEE/Step_4/conception/PIC/PIC_V4_OK/src/functions.c
                  __pa_82   0x002a4a    program     static /projet/faziasep/FEE/Step_4/conception/PIC/PIC_V4_OK/src/functions.c
                  __pa_83   0x002a58    program     static /projet/faziasep/FEE/Step_4/conception/PIC/PIC_V4_OK/src/functions.c
                  __pa_84   0x002a62    program     static /projet/faziasep/FEE/Step_4/conception/PIC/PIC_V4_OK/src/functions.c
                  __pa_85   0x002a6c    program     static /projet/faziasep/FEE/Step_4/conception/PIC/PIC_V4_OK/src/functions.c
                  __pa_86   0x002a76    program     static /projet/faziasep/FEE/Step_4/conception/PIC/PIC_V4_OK/src/functions.c
                  __pa_87   0x002a80    program     static /projet/faziasep/FEE/Step_4/conception/PIC/PIC_V4_OK/src/functions.c
                  __pa_88   0x002a88    program     static /projet/faziasep/FEE/Step_4/conception/PIC/PIC_V4_OK/src/functions.c
                  __pa_89   0x002a96    program     static /projet/faziasep/FEE/Step_4/conception/PIC/PIC_V4_OK/src/functions.c
                  __pa_90   0x002a9c    program     static /projet/faziasep/FEE/Step_4/conception/PIC/PIC_V4_OK/src/functions.c
                  __pa_91   0x002aa2    program     static /projet/faziasep/FEE/Step_4/conception/PIC/PIC_V4_OK/src/functions.c
                  __pa_92   0x002ab0    program     static /projet/faziasep/FEE/Step_4/conception/PIC/PIC_V4_OK/src/functions.c
                  __pa_93   0x002ab6    program     static /projet/faziasep/FEE/Step_4/conception/PIC/PIC_V4_OK/src/functions.c
                  __pa_94   0x002ac2    program     static /projet/faziasep/FEE/Step_4/conception/PIC/PIC_V4_OK/src/functions.c
                  __pa_95   0x002ad0    program     static /projet/faziasep/FEE/Step_4/conception/PIC/PIC_V4_OK/src/functions.c
                  __pa_96   0x002ad6    program     static /projet/faziasep/FEE/Step_4/conception/PIC/PIC_V4_OK/src/functions.c
                  __pa_97   0x002ae0    program     static /projet/faziasep/FEE/Step_4/conception/PIC/PIC_V4_OK/src/functions.c
                  __pa_98   0x002ae6    program     static /projet/faziasep/FEE/Step_4/conception/PIC/PIC_V4_OK/src/functions.c
                  __pa_99   0x002aee    program     static /projet/faziasep/FEE/Step_4/conception/PIC/PIC_V4_OK/src/functions.c
                 __pa_100   0x002af4    program     static /projet/faziasep/FEE/Step_4/conception/PIC/PIC_V4_OK/src/functions.c
                 __pa_101   0x002afc    program     static /projet/faziasep/FEE/Step_4/conception/PIC/PIC_V4_OK/src/functions.c
                 __pa_102   0x002b02    program     static /projet/faziasep/FEE/Step_4/conception/PIC/PIC_V4_OK/src/functions.c
                 __pa_103   0x002b10    program     static /projet/faziasep/FEE/Step_4/conception/PIC/PIC_V4_OK/src/functions.c
                 __pa_104   0x002b18    program     static /projet/faziasep/FEE/Step_4/conception/PIC/PIC_V4_OK/src/functions.c
                 __pa_105   0x002b30    program     static /projet/faziasep/FEE/Step_4/conception/PIC/PIC_V4_OK/src/functions.c
                 __pa_106   0x002b36    program     static /projet/faziasep/FEE/Step_4/conception/PIC/PIC_V4_OK/src/functions.c
                 __pa_107   0x002b3c    program     static /projet/faziasep/FEE/Step_4/conception/PIC/PIC_V4_OK/src/functions.c
                 __pa_108   0x002b42    program     static /projet/faziasep/FEE/Step_4/conception/PIC/PIC_V4_OK/src/functions.c
                 __pa_109   0x002b48    program     static /projet/faziasep/FEE/Step_4/conception/PIC/PIC_V4_OK/src/functions.c
                 __pa_110   0x002b54    program     static /projet/faziasep/FEE/Step_4/conception/PIC/PIC_V4_OK/src/functions.c
                 __pa_111   0x002b5c    program     static /projet/faziasep/FEE/Step_4/conception/PIC/PIC_V4_OK/src/functions.c
                 __pa_112   0x002b64    program     static /projet/faziasep/FEE/Step_4/conception/PIC/PIC_V4_OK/src/functions.c
                 __pa_113   0x002b6a    program     static /projet/faziasep/FEE/Step_4/conception/PIC/PIC_V4_OK/src/functions.c
                 __pa_114   0x002b7a    program     static /projet/faziasep/FEE/Step_4/conception/PIC/PIC_V4_OK/src/functions.c
                 __pa_115   0x002b8a    program     static /projet/faziasep/FEE/Step_4/conception/PIC/PIC_V4_OK/src/functions.c
                 __pa_116   0x002b92    program     static /projet/faziasep/FEE/Step_4/conception/PIC/PIC_V4_OK/src/functions.c
                 __pa_117   0x002b98    program     static /projet/faziasep/FEE/Step_4/conception/PIC/PIC_V4_OK/src/functions.c
                 __pa_118   0x002b9e    program     static /projet/faziasep/FEE/Step_4/conception/PIC/PIC_V4_OK/src/functions.c
                 __pa_119   0x002ba4    program     static /projet/faziasep/FEE/Step_4/conception/PIC/PIC_V4_OK/src/functions.c
                 __pa_120   0x002baa    program     static /projet/faziasep/FEE/Step_4/conception/PIC/PIC_V4_OK/src/functions.c
                 __pa_121   0x002bb0    program     static /projet/faziasep/FEE/Step_4/conception/PIC/PIC_V4_OK/src/functions.c
                 __pa_122   0x002bb6    program     static /projet/faziasep/FEE/Step_4/conception/PIC/PIC_V4_OK/src/functions.c
                 __pa_123   0x002bc2    program     static /projet/faziasep/FEE/Step_4/conception/PIC/PIC_V4_OK/src/functions.c
                 __pa_124   0x002bcc    program     static /projet/faziasep/FEE/Step_4/conception/PIC/PIC_V4_OK/src/functions.c
                 __pa_125   0x002bd4    program     static /projet/faziasep/FEE/Step_4/conception/PIC/PIC_V4_OK/src/functions.c
                 __pa_126   0x002bda    program     static /projet/faziasep/FEE/Step_4/conception/PIC/PIC_V4_OK/src/functions.c
                 __pa_127   0x002be2    program     static /projet/faziasep/FEE/Step_4/conception/PIC/PIC_V4_OK/src/functions.c
                 __pa_128   0x002bf0    program     static /projet/faziasep/FEE/Step_4/conception/PIC/PIC_V4_OK/src/functions.c
                 __pa_129   0x002bfc    program     static /projet/faziasep/FEE/Step_4/conception/PIC/PIC_V4_OK/src/functions.c
                 __pa_130   0x002c06    program     static /projet/faziasep/FEE/Step_4/conception/PIC/PIC_V4_OK/src/functions.c
                 __pa_131   0x002c12    program     static /projet/faziasep/FEE/Step_4/conception/PIC/PIC_V4_OK/src/functions.c
                 __pa_132   0x002c1e    program     static /projet/faziasep/FEE/Step_4/conception/PIC/PIC_V4_OK/src/functions.c
                 __pa_133   0x002c26    program     static /projet/faziasep/FEE/Step_4/conception/PIC/PIC_V4_OK/src/functions.c
                 __pa_134   0x002c2e    program     static /projet/faziasep/FEE/Step_4/conception/PIC/PIC_V4_OK/src/functions.c
                 __pa_135   0x002c36    program     static /projet/faziasep/FEE/Step_4/conception/PIC/PIC_V4_OK/src/functions.c
                 __pa_136   0x002c3e    program     static /projet/faziasep/FEE/Step_4/conception/PIC/PIC_V4_OK/src/functions.c
                 __pa_137   0x002c42    program     static /projet/faziasep/FEE/Step_4/conception/PIC/PIC_V4_OK/src/functions.c
                 __pa_138   0x002c4a    program     static /projet/faziasep/FEE/Step_4/conception/PIC/PIC_V4_OK/src/functions.c
                 __pa_139   0x002c52    program     static /projet/faziasep/FEE/Step_4/conception/PIC/PIC_V4_OK/src/functions.c
                 __pa_140   0x002c5c    program     static /projet/faziasep/FEE/Step_4/conception/PIC/PIC_V4_OK/src/functions.c
                 __pa_141   0x002c66    program     static /projet/faziasep/FEE/Step_4/conception/PIC/PIC_V4_OK/src/functions.c
                 __pa_142   0x002c6c    program     static /projet/faziasep/FEE/Step_4/conception/PIC/PIC_V4_OK/src/functions.c
                 __pa_143   0x002c74    program     static /projet/faziasep/FEE/Step_4/conception/PIC/PIC_V4_OK/src/functions.c
                 __pa_144   0x002c82    program     static /projet/faziasep/FEE/Step_4/conception/PIC/PIC_V4_OK/src/functions.c
                 __pa_145   0x002c90    program     static /projet/faziasep/FEE/Step_4/conception/PIC/PIC_V4_OK/src/functions.c
                 __pa_146   0x002c9e    program     static /projet/faziasep/FEE/Step_4/conception/PIC/PIC_V4_OK/src/functions.c
                 __pa_147   0x002ca4    program     static /projet/faziasep/FEE/Step_4/conception/PIC/PIC_V4_OK/src/functions.c
                 __pa_148   0x002cb2    program     static /projet/faziasep/FEE/Step_4/conception/PIC/PIC_V4_OK/src/functions.c
                 __pa_149   0x002cba    program     static /projet/faziasep/FEE/Step_4/conception/PIC/PIC_V4_OK/src/functions.c
                 __pa_150   0x002cc0    program     static /projet/faziasep/FEE/Step_4/conception/PIC/PIC_V4_OK/src/functions.c
                 __pa_151   0x002cc6    program     static /projet/faziasep/FEE/Step_4/conception/PIC/PIC_V4_OK/src/functions.c
                 __pa_152   0x002ccc    program     static /projet/faziasep/FEE/Step_4/conception/PIC/PIC_V4_OK/src/functions.c
                 __pa_153   0x002cd2    program     static /projet/faziasep/FEE/Step_4/conception/PIC/PIC_V4_OK/src/functions.c
                 __pa_154   0x002cd8    program     static /projet/faziasep/FEE/Step_4/conception/PIC/PIC_V4_OK/src/functions.c
                 __pa_155   0x002ce2    program     static /projet/faziasep/FEE/Step_4/conception/PIC/PIC_V4_OK/src/functions.c
                 __pa_156   0x002cea    program     static /projet/faziasep/FEE/Step_4/conception/PIC/PIC_V4_OK/src/functions.c
                 __pa_157   0x002cf4    program     static /projet/faziasep/FEE/Step_4/conception/PIC/PIC_V4_OK/src/functions.c
                 __pa_158   0x002cfc    program     static /projet/faziasep/FEE/Step_4/conception/PIC/PIC_V4_OK/src/functions.c
                 __pa_159   0x002d06    program     static /projet/faziasep/FEE/Step_4/conception/PIC/PIC_V4_OK/src/functions.c
                 __pa_160   0x002d14    program     static /projet/faziasep/FEE/Step_4/conception/PIC/PIC_V4_OK/src/functions.c
                 __pa_161   0x002d1c    program     static /projet/faziasep/FEE/Step_4/conception/PIC/PIC_V4_OK/src/functions.c
                 __pa_162   0x002d20    program     static /projet/faziasep/FEE/Step_4/conception/PIC/PIC_V4_OK/src/functions.c
                 __pa_163   0x002d26    program     static /projet/faziasep/FEE/Step_4/conception/PIC/PIC_V4_OK/src/functions.c
                 __pa_164   0x002d2c    program     static /projet/faziasep/FEE/Step_4/conception/PIC/PIC_V4_OK/src/functions.c
                 __pa_165   0x002d34    program     static /projet/faziasep/FEE/Step_4/conception/PIC/PIC_V4_OK/src/functions.c
                 __pa_166   0x002d3a    program     static /projet/faziasep/FEE/Step_4/conception/PIC/PIC_V4_OK/src/functions.c
                 __pa_167   0x002d46    program     static /projet/faziasep/FEE/Step_4/conception/PIC/PIC_V4_OK/src/functions.c
                 __pa_168   0x002d50    program     static /projet/faziasep/FEE/Step_4/conception/PIC/PIC_V4_OK/src/functions.c
                 __pa_169   0x002d58    program     static /projet/faziasep/FEE/Step_4/conception/PIC/PIC_V4_OK/src/functions.c
                 __pa_170   0x002d60    program     static /projet/faziasep/FEE/Step_4/conception/PIC/PIC_V4_OK/src/functions.c
                 __pa_171   0x002d68    program     static /projet/faziasep/FEE/Step_4/conception/PIC/PIC_V4_OK/src/functions.c
                 __pa_172   0x002d6e    program     static /projet/faziasep/FEE/Step_4/conception/PIC/PIC_V4_OK/src/functions.c
                 __pa_173   0x002d74    program     static /projet/faziasep/FEE/Step_4/conception/PIC/PIC_V4_OK/src/functions.c
                 __pa_174   0x002d7c    program     static /projet/faziasep/FEE/Step_4/conception/PIC/PIC_V4_OK/src/functions.c
                 __pa_175   0x002d92    program     static /projet/faziasep/FEE/Step_4/conception/PIC/PIC_V4_OK/src/functions.c
                 __pa_176   0x002da8    program     static /projet/faziasep/FEE/Step_4/conception/PIC/PIC_V4_OK/src/functions.c
                 __pa_177   0x002dbe    program     static /projet/faziasep/FEE/Step_4/conception/PIC/PIC_V4_OK/src/functions.c
                 __pa_178   0x002dd2    program     static /projet/faziasep/FEE/Step_4/conception/PIC/PIC_V4_OK/src/functions.c
                 __pa_179   0x002ddc    program     static /projet/faziasep/FEE/Step_4/conception/PIC/PIC_V4_OK/src/functions.c
                 __pa_180   0x002de4    program     static /projet/faziasep/FEE/Step_4/conception/PIC/PIC_V4_OK/src/functions.c
                 __pa_181   0x002dee    program     static /projet/faziasep/FEE/Step_4/conception/PIC/PIC_V4_OK/src/functions.c
                 __pa_182   0x002df6    program     static /projet/faziasep/FEE/Step_4/conception/PIC/PIC_V4_OK/src/functions.c
                 __pa_183   0x002e00    program     static /projet/faziasep/FEE/Step_4/conception/PIC/PIC_V4_OK/src/functions.c
                 __pa_184   0x002e06    program     static /projet/faziasep/FEE/Step_4/conception/PIC/PIC_V4_OK/src/functions.c
                 __pa_185   0x002e0e    program     static /projet/faziasep/FEE/Step_4/conception/PIC/PIC_V4_OK/src/functions.c
                     main   0x002e16    program     extern /projet/faziasep/FEE/Step_4/conception/PIC/PIC_V4_OK/src/main.c
        ___while_lbl00001   0x002e90    program     static                          
               __tmplbl_1   0x002f48    program     static                          
               __tmplbl_0   0x002f64    program     static                          
           ___if_lbl00004   0x002f6a    program     static                          
        ___while_lbl00002   0x002f6c    program     static                          
           ___do_lbl00012   0x002f6c    program     static                          
          ___for_lbl00010   0x002f8a    program     static                          
          ___for_lbl00007   0x002fb2    program     static                          
           ___if_lbl00009   0x002fb2    program     static                          
          ___for_lbl00008   0x002fb8    program     static                          
           ___if_lbl00011   0x002fc2    program     static                          
           ___do_lbl00005   0x002fc2    program     static                          
           ___do_lbl00006   0x002fc8    program     static                          
          ___for_lbl00021   0x002fd6    program     static                          
               __tmplbl_3   0x003054    program     static                          
               __tmplbl_2   0x00305c    program     static                          
           ___if_lbl00016   0x0030ea    program     static                          
               __tmplbl_5   0x0030f0    program     static                          
               __tmplbl_4   0x0030f8    program     static                          
           ___if_lbl00018   0x003186    program     static                          
         ___else_lbl00020   0x0031b6    program     static                          
          ___for_lbl00013   0x0031fc    program     static                          
           ___if_lbl00019   0x0031fc    program     static                          
          ___for_lbl00014   0x003202    program     static                          
           ___if_lbl00022   0x003202    program     static                          
        ___while_lbl00023   0x003238    program     static                          
               __tmplbl_7   0x003276    program     static                          
               __tmplbl_6   0x003286    program     static                          
         ___else_lbl00027   0x0033d2    program     static                          
           ___if_lbl00026   0x003432    program     static                          
          ___for_lbl00030   0x00343e    program     static                          
          ___for_lbl00028   0x003472    program     static                          
          ___for_lbl00029   0x00347c    program     static                          
               __tmplbl_9   0x003490    program     static                          
               __tmplbl_8   0x00349a    program     static                          
         ___else_lbl00037   0x0035b4    program     static                          
         ___else_lbl00033   0x003690    program     static                          
           ___if_lbl00032   0x003710    program     static                          
         ___else_lbl00035   0x003712    program     static                          
           ___if_lbl00034   0x003792    program     static                          
           ___if_lbl00036   0x003826    program     static                          
           ___if_lbl00038   0x003826    program     static                          
           ___if_lbl00039   0x003826    program     static                          
         ___else_lbl00041   0x003900    program     static                          
           ___if_lbl00040   0x00390a    program     static                          
         ___else_lbl00043   0x0039e6    program     static                          
           ___if_lbl00042   0x0039f0    program     static                          
         ___else_lbl00045   0x003acc    program     static                          
           ___if_lbl00044   0x003ad6    program     static                          
         ___else_lbl00047   0x003bb2    program     static                          
           ___if_lbl00046   0x003bbc    program     static                          
              __tmplbl_11   0x003c34    program     static                          
              __tmplbl_10   0x003c3a    program     static                          
           ___if_lbl00049   0x003c60    program     static                          
              __tmplbl_13   0x003c66    program     static                          
              __tmplbl_12   0x003c6c    program     static                          
           ___if_lbl00051   0x003c92    program     static                          
              __tmplbl_15   0x003c98    program     static                          
              __tmplbl_14   0x003c9e    program     static                          
           ___if_lbl00053   0x003cc4    program     static                          
              __tmplbl_17   0x003cca    program     static                          
              __tmplbl_16   0x003cd0    program     static                          
           ___if_lbl00055   0x003cf6    program     static                          
           ___if_lbl00056   0x003cfc    program     static                          
         ___else_lbl00058   0x003cfe    program     static                          
           ___if_lbl00057   0x003d02    program     static                          
              __tmplbl_19   0x003d5a    program     static                          
              __tmplbl_18   0x003d60    program     static                          
           ___if_lbl00060   0x003d6e    program     static                          
         ___else_lbl00062   0x003d70    program     static                          
           ___if_lbl00061   0x003d74    program     static                          
              __tmplbl_21   0x003dd2    program     static                          
              __tmplbl_20   0x003dd8    program     static                          
           ___if_lbl00064   0x003de2    program     static                          
           ___if_lbl00065   0x003de2    program     static                          
              __tmplbl_23   0x003e52    program     static                          
              __tmplbl_22   0x003e58    program     static                          
           ___if_lbl00067   0x003e8c    program     static                          
              __tmplbl_25   0x003e98    program     static                          
              __tmplbl_24   0x003e9e    program     static                          
           ___if_lbl00069   0x003ed2    program     static                          
              __tmplbl_27   0x003ede    program     static                          
              __tmplbl_26   0x003ee4    program     static                          
           ___if_lbl00071   0x003f18    program     static                          
              __tmplbl_29   0x003f24    program     static                          
              __tmplbl_28   0x003f2a    program     static                          
           ___if_lbl00073   0x003f5e    program     static                          
           ___if_lbl00074   0x003f64    program     static                          
         ___else_lbl00076   0x003f66    program     static                          
           ___if_lbl00075   0x003f6a    program     static                          
           ___if_lbl00077   0x004018    program     static                          
         ___else_lbl00079   0x00401a    program     static                          
           ___if_lbl00078   0x00401e    program     static                          
       ___return_lbl00000   0x004022    program     static                          
        ___while_lbl00024   0x004022    program     static                          
               diffLcTime   0x004024    program     extern /projet/faziasep/FEE/Step_4/conception/PIC/PIC_V4_OK/src/main.c
       pa_offset_settings   0x004102    program     extern /projet/faziasep/FEE/Step_4/conception/PIC/PIC_V4_OK/src/main.c
                   HVfunc   0x00443e    program     extern /projet/faziasep/FEE/Step_4/conception/PIC/PIC_V4_OK/src/main.c
  current_leak_inspection   0x0045f6    program     extern /projet/faziasep/FEE/Step_4/conception/PIC/PIC_V4_OK/src/main.c
                   __pa_0   0x00491e    program     static /projet/faziasep/FEE/Step_4/conception/PIC/PIC_V4_OK/src/main.c
                   __pa_1   0x004926    program     static /projet/faziasep/FEE/Step_4/conception/PIC/PIC_V4_OK/src/main.c
                   __pa_2   0x004964    program     static /projet/faziasep/FEE/Step_4/conception/PIC/PIC_V4_OK/src/main.c
                   __pa_3   0x004982    program     static /projet/faziasep/FEE/Step_4/conception/PIC/PIC_V4_OK/src/main.c
                   __pa_4   0x00499e    program     static /projet/faziasep/FEE/Step_4/conception/PIC/PIC_V4_OK/src/main.c
                   __pa_5   0x0049b0    program     static /projet/faziasep/FEE/Step_4/conception/PIC/PIC_V4_OK/src/main.c
                   __pa_6   0x0049d2    program     static /projet/faziasep/FEE/Step_4/conception/PIC/PIC_V4_OK/src/main.c
                   __pa_7   0x0049f8    program     static /projet/faziasep/FEE/Step_4/conception/PIC/PIC_V4_OK/src/main.c
                   __pa_8   0x004a0e    program     static /projet/faziasep/FEE/Step_4/conception/PIC/PIC_V4_OK/src/main.c
                   __pa_9   0x004a18    program     static /projet/faziasep/FEE/Step_4/conception/PIC/PIC_V4_OK/src/main.c
              __tmplbl_51   0x004a18    program     static                          
                  __pa_10   0x004a26    program     static /projet/faziasep/FEE/Step_4/conception/PIC/PIC_V4_OK/src/main.c
                  __pa_11   0x004a2c    program     static /projet/faziasep/FEE/Step_4/conception/PIC/PIC_V4_OK/src/main.c
                  __pa_12   0x004a46    program     static /projet/faziasep/FEE/Step_4/conception/PIC/PIC_V4_OK/src/main.c
                  __pa_13   0x004a64    program     static /projet/faziasep/FEE/Step_4/conception/PIC/PIC_V4_OK/src/main.c
                  __pa_14   0x004a74    program     static /projet/faziasep/FEE/Step_4/conception/PIC/PIC_V4_OK/src/main.c
                  __pa_15   0x004a7e    program     static /projet/faziasep/FEE/Step_4/conception/PIC/PIC_V4_OK/src/main.c
                  __pa_16   0x004a8a    program     static /projet/faziasep/FEE/Step_4/conception/PIC/PIC_V4_OK/src/main.c
                  __pa_17   0x004a96    program     static /projet/faziasep/FEE/Step_4/conception/PIC/PIC_V4_OK/src/main.c
                  __pa_18   0x004aa4    program     static /projet/faziasep/FEE/Step_4/conception/PIC/PIC_V4_OK/src/main.c
                  __pa_19   0x004ab2    program     static /projet/faziasep/FEE/Step_4/conception/PIC/PIC_V4_OK/src/main.c
                  __pa_20   0x004ac0    program     static /projet/faziasep/FEE/Step_4/conception/PIC/PIC_V4_OK/src/main.c
                  __pa_21   0x004ac8    program     static /projet/faziasep/FEE/Step_4/conception/PIC/PIC_V4_OK/src/main.c
                  __pa_22   0x004ada    program     static /projet/faziasep/FEE/Step_4/conception/PIC/PIC_V4_OK/src/main.c
                  __pa_23   0x004ae6    program     static /projet/faziasep/FEE/Step_4/conception/PIC/PIC_V4_OK/src/main.c
                  __pa_24   0x004af2    program     static /projet/faziasep/FEE/Step_4/conception/PIC/PIC_V4_OK/src/main.c
                  __pa_25   0x004afc    program     static /projet/faziasep/FEE/Step_4/conception/PIC/PIC_V4_OK/src/main.c
                  __pa_26   0x004b06    program     static /projet/faziasep/FEE/Step_4/conception/PIC/PIC_V4_OK/src/main.c
                  __pa_27   0x004b14    program     static /projet/faziasep/FEE/Step_4/conception/PIC/PIC_V4_OK/src/main.c
                  __pa_28   0x004b1e    program     static /projet/faziasep/FEE/Step_4/conception/PIC/PIC_V4_OK/src/main.c
                  __pa_29   0x004b24    program     static /projet/faziasep/FEE/Step_4/conception/PIC/PIC_V4_OK/src/main.c
                  __pa_30   0x004b3e    program     static /projet/faziasep/FEE/Step_4/conception/PIC/PIC_V4_OK/src/main.c
                  __pa_31   0x004b52    program     static /projet/faziasep/FEE/Step_4/conception/PIC/PIC_V4_OK/src/main.c
                  __pa_32   0x004b64    program     static /projet/faziasep/FEE/Step_4/conception/PIC/PIC_V4_OK/src/main.c
                  __pa_33   0x004b76    program     static /projet/faziasep/FEE/Step_4/conception/PIC/PIC_V4_OK/src/main.c
                  __pa_34   0x004b80    program     static /projet/faziasep/FEE/Step_4/conception/PIC/PIC_V4_OK/src/main.c
                  __pa_35   0x004b8a    program     static /projet/faziasep/FEE/Step_4/conception/PIC/PIC_V4_OK/src/main.c
                  __pa_36   0x004b94    program     static /projet/faziasep/FEE/Step_4/conception/PIC/PIC_V4_OK/src/main.c
                  __pa_37   0x004b9e    program     static /projet/faziasep/FEE/Step_4/conception/PIC/PIC_V4_OK/src/main.c
                  __pa_38   0x004ba6    program     static /projet/faziasep/FEE/Step_4/conception/PIC/PIC_V4_OK/src/main.c
                    getid   0x004bae    program     extern /projet/faziasep/FEE/Step_4/conception/PIC/PIC_V4_OK/src/myfunc/display.c
                asciiconv   0x004bdc    program     extern /projet/faziasep/FEE/Step_4/conception/PIC/PIC_V4_OK/src/myfunc/display.c
                  uinttoa   0x004c1c    program     extern /projet/faziasep/FEE/Step_4/conception/PIC/PIC_V4_OK/src/myfunc/display.c
           dispuinttochar   0x004cc0    program     extern /projet/faziasep/FEE/Step_4/conception/PIC/PIC_V4_OK/src/myfunc/display.c
         dispuint32tochar   0x004d30    program     extern /projet/faziasep/FEE/Step_4/conception/PIC/PIC_V4_OK/src/myfunc/display.c
             dispinttobin   0x004d8c    program     extern /projet/faziasep/FEE/Step_4/conception/PIC/PIC_V4_OK/src/myfunc/display.c
            dispchartobin   0x004df6    program     extern /projet/faziasep/FEE/Step_4/conception/PIC/PIC_V4_OK/src/myfunc/display.c
             myStrCpyUint   0x004e4e    program     extern /projet/faziasep/FEE/Step_4/conception/PIC/PIC_V4_OK/src/myfunc/display.c
             myStrCpyByte   0x0050ee    program     extern /projet/faziasep/FEE/Step_4/conception/PIC/PIC_V4_OK/src/myfunc/display.c
             myStrCpyChar   0x00520a    program     extern /projet/faziasep/FEE/Step_4/conception/PIC/PIC_V4_OK/src/myfunc/display.c
            myStrCpyChar2   0x005272    program     extern /projet/faziasep/FEE/Step_4/conception/PIC/PIC_V4_OK/src/myfunc/display.c
            myStrCpy1Char   0x0052de    program     extern /projet/faziasep/FEE/Step_4/conception/PIC/PIC_V4_OK/src/myfunc/display.c
              myStrCpyHex   0x00531c    program     extern /projet/faziasep/FEE/Step_4/conception/PIC/PIC_V4_OK/src/myfunc/display.c
                   __pa_0   0x00550c    program     static /projet/faziasep/FEE/Step_4/conception/PIC/PIC_V4_OK/src/myfunc/display.c
                   __pa_1   0x00551e    program     static /projet/faziasep/FEE/Step_4/conception/PIC/PIC_V4_OK/src/myfunc/display.c
                   __pa_2   0x005530    program     static /projet/faziasep/FEE/Step_4/conception/PIC/PIC_V4_OK/src/myfunc/display.c
              __tmplbl_19   0x005530    program     static                          
              __tmplbl_18   0x005530    program     static                          
              __tmplbl_21   0x005530    program     static                          
              __tmplbl_20   0x005530    program     static                          
                   __pa_3   0x00553c    program     static /projet/faziasep/FEE/Step_4/conception/PIC/PIC_V4_OK/src/myfunc/display.c
                   __pa_4   0x005562    program     static /projet/faziasep/FEE/Step_4/conception/PIC/PIC_V4_OK/src/myfunc/display.c
                   __pa_5   0x00557c    program     static /projet/faziasep/FEE/Step_4/conception/PIC/PIC_V4_OK/src/myfunc/display.c
                   __pa_6   0x005592    program     static /projet/faziasep/FEE/Step_4/conception/PIC/PIC_V4_OK/src/myfunc/display.c
                   __pa_7   0x0055a0    program     static /projet/faziasep/FEE/Step_4/conception/PIC/PIC_V4_OK/src/myfunc/display.c
                   __pa_8   0x0055ae    program     static /projet/faziasep/FEE/Step_4/conception/PIC/PIC_V4_OK/src/myfunc/display.c
                   __pa_9   0x0055be    program     static /projet/faziasep/FEE/Step_4/conception/PIC/PIC_V4_OK/src/myfunc/display.c
                  __pa_10   0x0055d0    program     static /projet/faziasep/FEE/Step_4/conception/PIC/PIC_V4_OK/src/myfunc/display.c
                  __pa_11   0x0055e0    program     static /projet/faziasep/FEE/Step_4/conception/PIC/PIC_V4_OK/src/myfunc/display.c
                  __pa_12   0x005602    program     static /projet/faziasep/FEE/Step_4/conception/PIC/PIC_V4_OK/src/myfunc/display.c
                  __pa_13   0x005622    program     static /projet/faziasep/FEE/Step_4/conception/PIC/PIC_V4_OK/src/myfunc/display.c
                  __pa_14   0x005634    program     static /projet/faziasep/FEE/Step_4/conception/PIC/PIC_V4_OK/src/myfunc/display.c
                  __pa_15   0x005644    program     static /projet/faziasep/FEE/Step_4/conception/PIC/PIC_V4_OK/src/myfunc/display.c
                  __pa_16   0x005654    program     static /projet/faziasep/FEE/Step_4/conception/PIC/PIC_V4_OK/src/myfunc/display.c
                  __pa_17   0x00566c    program     static /projet/faziasep/FEE/Step_4/conception/PIC/PIC_V4_OK/src/myfunc/display.c
                  __pa_18   0x00567c    program     static /projet/faziasep/FEE/Step_4/conception/PIC/PIC_V4_OK/src/myfunc/display.c
                  __pa_19   0x00568c    program     static /projet/faziasep/FEE/Step_4/conception/PIC/PIC_V4_OK/src/myfunc/display.c
                  __pa_20   0x0056a2    program     static /projet/faziasep/FEE/Step_4/conception/PIC/PIC_V4_OK/src/myfunc/display.c
                  __pa_21   0x0056b4    program     static /projet/faziasep/FEE/Step_4/conception/PIC/PIC_V4_OK/src/myfunc/display.c
                  __pa_22   0x0056c6    program     static /projet/faziasep/FEE/Step_4/conception/PIC/PIC_V4_OK/src/myfunc/display.c
                  __pa_23   0x0056d0    program     static /projet/faziasep/FEE/Step_4/conception/PIC/PIC_V4_OK/src/myfunc/display.c
                  __pa_24   0x0056e0    program     static /projet/faziasep/FEE/Step_4/conception/PIC/PIC_V4_OK/src/myfunc/display.c
                  __pa_25   0x0056f0    program     static /projet/faziasep/FEE/Step_4/conception/PIC/PIC_V4_OK/src/myfunc/display.c
                  __pa_26   0x0056fe    program     static /projet/faziasep/FEE/Step_4/conception/PIC/PIC_V4_OK/src/myfunc/display.c
                  __pa_27   0x00570c    program     static /projet/faziasep/FEE/Step_4/conception/PIC/PIC_V4_OK/src/myfunc/display.c
                  __pa_28   0x00571a    program     static /projet/faziasep/FEE/Step_4/conception/PIC/PIC_V4_OK/src/myfunc/display.c
                  __pa_29   0x005728    program     static /projet/faziasep/FEE/Step_4/conception/PIC/PIC_V4_OK/src/myfunc/display.c
                  __pa_30   0x005736    program     static /projet/faziasep/FEE/Step_4/conception/PIC/PIC_V4_OK/src/myfunc/display.c
                  __pa_31   0x005744    program     static /projet/faziasep/FEE/Step_4/conception/PIC/PIC_V4_OK/src/myfunc/display.c
                  __pa_32   0x005752    program     static /projet/faziasep/FEE/Step_4/conception/PIC/PIC_V4_OK/src/myfunc/display.c
                  __pa_33   0x00575c    program     static /projet/faziasep/FEE/Step_4/conception/PIC/PIC_V4_OK/src/myfunc/display.c
                  __pa_34   0x005760    program     static /projet/faziasep/FEE/Step_4/conception/PIC/PIC_V4_OK/src/myfunc/display.c
                  __pa_35   0x00576a    program     static /projet/faziasep/FEE/Step_4/conception/PIC/PIC_V4_OK/src/myfunc/display.c
                  __pa_36   0x00578c    program     static /projet/faziasep/FEE/Step_4/conception/PIC/PIC_V4_OK/src/myfunc/display.c
                  __pa_37   0x005796    program     static /projet/faziasep/FEE/Step_4/conception/PIC/PIC_V4_OK/src/myfunc/display.c
                  __pa_38   0x0057a6    program     static /projet/faziasep/FEE/Step_4/conception/PIC/PIC_V4_OK/src/myfunc/display.c
                  __pa_39   0x0057b4    program     static /projet/faziasep/FEE/Step_4/conception/PIC/PIC_V4_OK/src/myfunc/display.c
                  __pa_40   0x0057c4    program     static /projet/faziasep/FEE/Step_4/conception/PIC/PIC_V4_OK/src/myfunc/display.c
                  __pa_41   0x0057ce    program     static /projet/faziasep/FEE/Step_4/conception/PIC/PIC_V4_OK/src/myfunc/display.c
                  __pa_42   0x0057d6    program     static /projet/faziasep/FEE/Step_4/conception/PIC/PIC_V4_OK/src/myfunc/display.c
                  __pa_43   0x0057dc    program     static /projet/faziasep/FEE/Step_4/conception/PIC/PIC_V4_OK/src/myfunc/display.c
                  __pa_44   0x0057e4    program     static /projet/faziasep/FEE/Step_4/conception/PIC/PIC_V4_OK/src/myfunc/display.c
                  ucsetup   0x0057ea    program     extern /projet/faziasep/FEE/Step_4/conception/PIC/PIC_V4_OK/src/setup.c
                 memsetup   0x005f1a    program     extern /projet/faziasep/FEE/Step_4/conception/PIC/PIC_V4_OK/src/setup.c
                   __pa_0   0x005f1c    program     static /projet/faziasep/FEE/Step_4/conception/PIC/PIC_V4_OK/src/setup.c
                   __pa_1   0x005f2a    program     static /projet/faziasep/FEE/Step_4/conception/PIC/PIC_V4_OK/src/setup.c
                   __pa_2   0x005f30    program     static /projet/faziasep/FEE/Step_4/conception/PIC/PIC_V4_OK/src/setup.c
                   __pa_3   0x005f54    program     static /projet/faziasep/FEE/Step_4/conception/PIC/PIC_V4_OK/src/setup.c
                   __pa_4   0x005f5e    program     static /projet/faziasep/FEE/Step_4/conception/PIC/PIC_V4_OK/src/setup.c
                   __pa_5   0x005f76    program     static /projet/faziasep/FEE/Step_4/conception/PIC/PIC_V4_OK/src/setup.c
                   __pa_6   0x005f8a    program     static /projet/faziasep/FEE/Step_4/conception/PIC/PIC_V4_OK/src/setup.c
                   __pa_7   0x005f92    program     static /projet/faziasep/FEE/Step_4/conception/PIC/PIC_V4_OK/src/setup.c
                   __pa_8   0x005f9e    program     static /projet/faziasep/FEE/Step_4/conception/PIC/PIC_V4_OK/src/setup.c
                   __pa_9   0x005fb0    program     static /projet/faziasep/FEE/Step_4/conception/PIC/PIC_V4_OK/src/setup.c
                  __pa_10   0x005fcc    program     static /projet/faziasep/FEE/Step_4/conception/PIC/PIC_V4_OK/src/setup.c
                  __pa_11   0x005fd8    program     static /projet/faziasep/FEE/Step_4/conception/PIC/PIC_V4_OK/src/setup.c
                  __pa_12   0x005ff0    program     static /projet/faziasep/FEE/Step_4/conception/PIC/PIC_V4_OK/src/setup.c
                  __pa_13   0x005ffe    program     static /projet/faziasep/FEE/Step_4/conception/PIC/PIC_V4_OK/src/setup.c
                  __pa_14   0x006008    program     static /projet/faziasep/FEE/Step_4/conception/PIC/PIC_V4_OK/src/setup.c
                  __pa_15   0x006012    program     static /projet/faziasep/FEE/Step_4/conception/PIC/PIC_V4_OK/src/setup.c
                  __pa_16   0x006024    program     static /projet/faziasep/FEE/Step_4/conception/PIC/PIC_V4_OK/src/setup.c
                  __pa_17   0x00602c    program     static /projet/faziasep/FEE/Step_4/conception/PIC/PIC_V4_OK/src/setup.c
                  __pa_18   0x00603a    program     static /projet/faziasep/FEE/Step_4/conception/PIC/PIC_V4_OK/src/setup.c
                  __pa_19   0x00604c    program     static /projet/faziasep/FEE/Step_4/conception/PIC/PIC_V4_OK/src/setup.c
                  __pa_20   0x006058    program     static /projet/faziasep/FEE/Step_4/conception/PIC/PIC_V4_OK/src/setup.c
                  __pa_21   0x00606e    program     static /projet/faziasep/FEE/Step_4/conception/PIC/PIC_V4_OK/src/setup.c
                  __pa_22   0x00607e    program     static /projet/faziasep/FEE/Step_4/conception/PIC/PIC_V4_OK/src/setup.c
                  __pa_23   0x00608c    program     static /projet/faziasep/FEE/Step_4/conception/PIC/PIC_V4_OK/src/setup.c
                  __pa_24   0x00609a    program     static /projet/faziasep/FEE/Step_4/conception/PIC/PIC_V4_OK/src/setup.c
                  __pa_25   0x0060a8    program     static /projet/faziasep/FEE/Step_4/conception/PIC/PIC_V4_OK/src/setup.c
                  __pa_26   0x0060b6    program     static /projet/faziasep/FEE/Step_4/conception/PIC/PIC_V4_OK/src/setup.c
                  __pa_27   0x0060c0    program     static /projet/faziasep/FEE/Step_4/conception/PIC/PIC_V4_OK/src/setup.c
                  __pa_28   0x0060d4    program     static /projet/faziasep/FEE/Step_4/conception/PIC/PIC_V4_OK/src/setup.c
                  __pa_29   0x0060de    program     static /projet/faziasep/FEE/Step_4/conception/PIC/PIC_V4_OK/src/setup.c
                  __pa_30   0x0060e8    program     static /projet/faziasep/FEE/Step_4/conception/PIC/PIC_V4_OK/src/setup.c
                  __pa_31   0x0060f2    program     static /projet/faziasep/FEE/Step_4/conception/PIC/PIC_V4_OK/src/setup.c
                  __pa_32   0x0060fc    program     static /projet/faziasep/FEE/Step_4/conception/PIC/PIC_V4_OK/src/setup.c
                  __pa_33   0x00610a    program     static /projet/faziasep/FEE/Step_4/conception/PIC/PIC_V4_OK/src/setup.c
                  __pa_34   0x006118    program     static /projet/faziasep/FEE/Step_4/conception/PIC/PIC_V4_OK/src/setup.c
                  __pa_35   0x006122    program     static /projet/faziasep/FEE/Step_4/conception/PIC/PIC_V4_OK/src/setup.c
                  __pa_36   0x006136    program     static /projet/faziasep/FEE/Step_4/conception/PIC/PIC_V4_OK/src/setup.c
                  __pa_37   0x00613e    program     static /projet/faziasep/FEE/Step_4/conception/PIC/PIC_V4_OK/src/setup.c
                  __pa_38   0x006148    program     static /projet/faziasep/FEE/Step_4/conception/PIC/PIC_V4_OK/src/setup.c
                  __pa_39   0x00615e    program     static /projet/faziasep/FEE/Step_4/conception/PIC/PIC_V4_OK/src/setup.c
                  __pa_40   0x006168    program     static /projet/faziasep/FEE/Step_4/conception/PIC/PIC_V4_OK/src/setup.c
                  __pa_41   0x006172    program     static /projet/faziasep/FEE/Step_4/conception/PIC/PIC_V4_OK/src/setup.c
                  __pa_42   0x006180    program     static /projet/faziasep/FEE/Step_4/conception/PIC/PIC_V4_OK/src/setup.c
                  __pa_43   0x006186    program     static /projet/faziasep/FEE/Step_4/conception/PIC/PIC_V4_OK/src/setup.c
                  __pa_44   0x00618c    program     static /projet/faziasep/FEE/Step_4/conception/PIC/PIC_V4_OK/src/setup.c
                  __pa_45   0x006194    program     static /projet/faziasep/FEE/Step_4/conception/PIC/PIC_V4_OK/src/setup.c
                  __pa_46   0x0061a2    program     static /projet/faziasep/FEE/Step_4/conception/PIC/PIC_V4_OK/src/setup.c
                  __pa_47   0x0061b0    program     static /projet/faziasep/FEE/Step_4/conception/PIC/PIC_V4_OK/src/setup.c
                  __pa_48   0x0061bc    program     static /projet/faziasep/FEE/Step_4/conception/PIC/PIC_V4_OK/src/setup.c
                  __pa_49   0x0061ca    program     static /projet/faziasep/FEE/Step_4/conception/PIC/PIC_V4_OK/src/setup.c
                  __pa_50   0x0061d4    program     static /projet/faziasep/FEE/Step_4/conception/PIC/PIC_V4_OK/src/setup.c
                  __pa_51   0x0061dc    program     static /projet/faziasep/FEE/Step_4/conception/PIC/PIC_V4_OK/src/setup.c
                  __pa_52   0x0061e8    program     static /projet/faziasep/FEE/Step_4/conception/PIC/PIC_V4_OK/src/setup.c
                  __pa_53   0x0061f6    program     static /projet/faziasep/FEE/Step_4/conception/PIC/PIC_V4_OK/src/setup.c
                  __pa_54   0x0061fe    program     static /projet/faziasep/FEE/Step_4/conception/PIC/PIC_V4_OK/src/setup.c
                 dac_init   0x006206    program     extern /projet/faziasep/FEE/Step_4/conception/PIC/PIC_V4_OK/src/myfunc/dac8568.c
             dac_sequence   0x006270    program     extern /projet/faziasep/FEE/Step_4/conception/PIC/PIC_V4_OK/src/myfunc/dac8568.c
                   pulser   0x0062ee    program     extern /projet/faziasep/FEE/Step_4/conception/PIC/PIC_V4_OK/src/myfunc/dac8568.c
       ask_hv_calibration   0x006338    program     extern /projet/faziasep/FEE/Step_4/conception/PIC/PIC_V4_OK/src/myfunc/dac8568.c
            get_value_dec   0x0063a6    program     extern /projet/faziasep/FEE/Step_4/conception/PIC/PIC_V4_OK/src/myfunc/dac8568.c
                 slop_vhv   0x0065c6    program     extern /projet/faziasep/FEE/Step_4/conception/PIC/PIC_V4_OK/src/myfunc/dac8568.c
                   __pa_0   0x0066d4    program     static /projet/faziasep/FEE/Step_4/conception/PIC/PIC_V4_OK/src/myfunc/dac8568.c
                   __pa_1   0x0066fc    program     static /projet/faziasep/FEE/Step_4/conception/PIC/PIC_V4_OK/src/myfunc/dac8568.c
                   __pa_2   0x006714    program     static /projet/faziasep/FEE/Step_4/conception/PIC/PIC_V4_OK/src/myfunc/dac8568.c
                   __pa_3   0x006760    program     static /projet/faziasep/FEE/Step_4/conception/PIC/PIC_V4_OK/src/myfunc/dac8568.c
                   __pa_4   0x00677c    program     static /projet/faziasep/FEE/Step_4/conception/PIC/PIC_V4_OK/src/myfunc/dac8568.c
                   __pa_5   0x006796    program     static /projet/faziasep/FEE/Step_4/conception/PIC/PIC_V4_OK/src/myfunc/dac8568.c
                   __pa_6   0x0067a8    program     static /projet/faziasep/FEE/Step_4/conception/PIC/PIC_V4_OK/src/myfunc/dac8568.c
                   __pa_7   0x0067b6    program     static /projet/faziasep/FEE/Step_4/conception/PIC/PIC_V4_OK/src/myfunc/dac8568.c
                   __pa_8   0x0067e4    program     static /projet/faziasep/FEE/Step_4/conception/PIC/PIC_V4_OK/src/myfunc/dac8568.c
                   __pa_9   0x0067fa    program     static /projet/faziasep/FEE/Step_4/conception/PIC/PIC_V4_OK/src/myfunc/dac8568.c
                  __pa_10   0x006806    program     static /projet/faziasep/FEE/Step_4/conception/PIC/PIC_V4_OK/src/myfunc/dac8568.c
                  __pa_11   0x006810    program     static /projet/faziasep/FEE/Step_4/conception/PIC/PIC_V4_OK/src/myfunc/dac8568.c
                  __pa_12   0x006832    program     static /projet/faziasep/FEE/Step_4/conception/PIC/PIC_V4_OK/src/myfunc/dac8568.c
                  __pa_13   0x006844    program     static /projet/faziasep/FEE/Step_4/conception/PIC/PIC_V4_OK/src/myfunc/dac8568.c
                  __pa_14   0x006856    program     static /projet/faziasep/FEE/Step_4/conception/PIC/PIC_V4_OK/src/myfunc/dac8568.c
                  __pa_15   0x006870    program     static /projet/faziasep/FEE/Step_4/conception/PIC/PIC_V4_OK/src/myfunc/dac8568.c
                  __pa_16   0x006888    program     static /projet/faziasep/FEE/Step_4/conception/PIC/PIC_V4_OK/src/myfunc/dac8568.c
                  __pa_17   0x006894    program     static /projet/faziasep/FEE/Step_4/conception/PIC/PIC_V4_OK/src/myfunc/dac8568.c
                  __pa_18   0x0068a2    program     static /projet/faziasep/FEE/Step_4/conception/PIC/PIC_V4_OK/src/myfunc/dac8568.c
                  __pa_19   0x0068b4    program     static /projet/faziasep/FEE/Step_4/conception/PIC/PIC_V4_OK/src/myfunc/dac8568.c
                  __pa_20   0x0068bc    program     static /projet/faziasep/FEE/Step_4/conception/PIC/PIC_V4_OK/src/myfunc/dac8568.c
                  __pa_21   0x0068ca    program     static /projet/faziasep/FEE/Step_4/conception/PIC/PIC_V4_OK/src/myfunc/dac8568.c
                  __pa_22   0x0068e4    program     static /projet/faziasep/FEE/Step_4/conception/PIC/PIC_V4_OK/src/myfunc/dac8568.c
                  __pa_23   0x006904    program     static /projet/faziasep/FEE/Step_4/conception/PIC/PIC_V4_OK/src/myfunc/dac8568.c
                  __pa_24   0x006912    program     static /projet/faziasep/FEE/Step_4/conception/PIC/PIC_V4_OK/src/myfunc/dac8568.c
                  __pa_25   0x006920    program     static /projet/faziasep/FEE/Step_4/conception/PIC/PIC_V4_OK/src/myfunc/dac8568.c
                  __pa_26   0x006930    program     static /projet/faziasep/FEE/Step_4/conception/PIC/PIC_V4_OK/src/myfunc/dac8568.c
                  __pa_27   0x00693e    program     static /projet/faziasep/FEE/Step_4/conception/PIC/PIC_V4_OK/src/myfunc/dac8568.c
                  __pa_28   0x006948    program     static /projet/faziasep/FEE/Step_4/conception/PIC/PIC_V4_OK/src/myfunc/dac8568.c
                  __pa_29   0x006952    program     static /projet/faziasep/FEE/Step_4/conception/PIC/PIC_V4_OK/src/myfunc/dac8568.c
                  __pa_30   0x006964    program     static /projet/faziasep/FEE/Step_4/conception/PIC/PIC_V4_OK/src/myfunc/dac8568.c
                  __pa_31   0x006974    program     static /projet/faziasep/FEE/Step_4/conception/PIC/PIC_V4_OK/src/myfunc/dac8568.c
                  __pa_32   0x006980    program     static /projet/faziasep/FEE/Step_4/conception/PIC/PIC_V4_OK/src/myfunc/dac8568.c
                  __pa_33   0x00698c    program     static /projet/faziasep/FEE/Step_4/conception/PIC/PIC_V4_OK/src/myfunc/dac8568.c
                  __pa_34   0x00699a    program     static /projet/faziasep/FEE/Step_4/conception/PIC/PIC_V4_OK/src/myfunc/dac8568.c
                  __pa_35   0x0069a6    program     static /projet/faziasep/FEE/Step_4/conception/PIC/PIC_V4_OK/src/myfunc/dac8568.c
                  __pa_36   0x0069b4    program     static /projet/faziasep/FEE/Step_4/conception/PIC/PIC_V4_OK/src/myfunc/dac8568.c
                  __pa_37   0x0069c2    program     static /projet/faziasep/FEE/Step_4/conception/PIC/PIC_V4_OK/src/myfunc/dac8568.c
                  __pa_38   0x0069d0    program     static /projet/faziasep/FEE/Step_4/conception/PIC/PIC_V4_OK/src/myfunc/dac8568.c
                  __pa_39   0x0069d8    program     static /projet/faziasep/FEE/Step_4/conception/PIC/PIC_V4_OK/src/myfunc/dac8568.c
                  __pa_40   0x0069e0    program     static /projet/faziasep/FEE/Step_4/conception/PIC/PIC_V4_OK/src/myfunc/dac8568.c
                  __pa_41   0x0069e8    program     static /projet/faziasep/FEE/Step_4/conception/PIC/PIC_V4_OK/src/myfunc/dac8568.c
                temp_init   0x0069f0    program     extern /projet/faziasep/FEE/Step_4/conception/PIC/PIC_V4_OK/src/myfunc/Tsensor.c
                     temp   0x006b82    program     extern /projet/faziasep/FEE/Step_4/conception/PIC/PIC_V4_OK/src/myfunc/Tsensor.c
          write_bit_start   0x006f32    program     extern /projet/faziasep/FEE/Step_4/conception/PIC/PIC_V4_OK/src/myfunc/Tsensor.c
                write_bit   0x006f40    program     extern /projet/faziasep/FEE/Step_4/conception/PIC/PIC_V4_OK/src/myfunc/Tsensor.c
             attente_bit1   0x006f5c    program     extern /projet/faziasep/FEE/Step_4/conception/PIC/PIC_V4_OK/src/myfunc/Tsensor.c
                   __pa_0   0x006f80    program     static /projet/faziasep/FEE/Step_4/conception/PIC/PIC_V4_OK/src/myfunc/Tsensor.c
                   __pa_1   0x006f86    program     static /projet/faziasep/FEE/Step_4/conception/PIC/PIC_V4_OK/src/myfunc/Tsensor.c
                   __pa_2   0x006f9e    program     static /projet/faziasep/FEE/Step_4/conception/PIC/PIC_V4_OK/src/myfunc/Tsensor.c
                   __pa_3   0x006fd8    program     static /projet/faziasep/FEE/Step_4/conception/PIC/PIC_V4_OK/src/myfunc/Tsensor.c
                   __pa_4   0x006fde    program     static /projet/faziasep/FEE/Step_4/conception/PIC/PIC_V4_OK/src/myfunc/Tsensor.c
                   __pa_5   0x006fec    program     static /projet/faziasep/FEE/Step_4/conception/PIC/PIC_V4_OK/src/myfunc/Tsensor.c
                   __pa_6   0x006ffe    program     static /projet/faziasep/FEE/Step_4/conception/PIC/PIC_V4_OK/src/myfunc/Tsensor.c
                   __pa_7   0x007022    program     static /projet/faziasep/FEE/Step_4/conception/PIC/PIC_V4_OK/src/myfunc/Tsensor.c
                   __pa_8   0x00702a    program     static /projet/faziasep/FEE/Step_4/conception/PIC/PIC_V4_OK/src/myfunc/Tsensor.c
                   __pa_9   0x00703a    program     static /projet/faziasep/FEE/Step_4/conception/PIC/PIC_V4_OK/src/myfunc/Tsensor.c
                  __pa_10   0x007042    program     static /projet/faziasep/FEE/Step_4/conception/PIC/PIC_V4_OK/src/myfunc/Tsensor.c
                  __pa_11   0x00704e    program     static /projet/faziasep/FEE/Step_4/conception/PIC/PIC_V4_OK/src/myfunc/Tsensor.c
                  __pa_12   0x007054    program     static /projet/faziasep/FEE/Step_4/conception/PIC/PIC_V4_OK/src/myfunc/Tsensor.c
                  __pa_13   0x007064    program     static /projet/faziasep/FEE/Step_4/conception/PIC/PIC_V4_OK/src/myfunc/Tsensor.c
                  __pa_14   0x007072    program     static /projet/faziasep/FEE/Step_4/conception/PIC/PIC_V4_OK/src/myfunc/Tsensor.c
                  __pa_15   0x00708a    program     static /projet/faziasep/FEE/Step_4/conception/PIC/PIC_V4_OK/src/myfunc/Tsensor.c
                  __pa_16   0x007092    program     static /projet/faziasep/FEE/Step_4/conception/PIC/PIC_V4_OK/src/myfunc/Tsensor.c
                  __pa_17   0x0070a4    program     static /projet/faziasep/FEE/Step_4/conception/PIC/PIC_V4_OK/src/myfunc/Tsensor.c
                  __pa_18   0x0070b6    program     static /projet/faziasep/FEE/Step_4/conception/PIC/PIC_V4_OK/src/myfunc/Tsensor.c
                  __pa_19   0x0070bc    program     static /projet/faziasep/FEE/Step_4/conception/PIC/PIC_V4_OK/src/myfunc/Tsensor.c
                  __pa_20   0x0070c8    program     static /projet/faziasep/FEE/Step_4/conception/PIC/PIC_V4_OK/src/myfunc/Tsensor.c
                  __pa_21   0x0070d0    program     static /projet/faziasep/FEE/Step_4/conception/PIC/PIC_V4_OK/src/myfunc/Tsensor.c
                  __pa_22   0x0070de    program     static /projet/faziasep/FEE/Step_4/conception/PIC/PIC_V4_OK/src/myfunc/Tsensor.c
                  __pa_23   0x0070ec    program     static /projet/faziasep/FEE/Step_4/conception/PIC/PIC_V4_OK/src/myfunc/Tsensor.c
                  __pa_24   0x0070fa    program     static /projet/faziasep/FEE/Step_4/conception/PIC/PIC_V4_OK/src/myfunc/Tsensor.c
                  __pa_25   0x007108    program     static /projet/faziasep/FEE/Step_4/conception/PIC/PIC_V4_OK/src/myfunc/Tsensor.c
                  __pa_26   0x00711e    program     static /projet/faziasep/FEE/Step_4/conception/PIC/PIC_V4_OK/src/myfunc/Tsensor.c
                  __pa_27   0x007124    program     static /projet/faziasep/FEE/Step_4/conception/PIC/PIC_V4_OK/src/myfunc/Tsensor.c
                  __pa_28   0x007132    program     static /projet/faziasep/FEE/Step_4/conception/PIC/PIC_V4_OK/src/myfunc/Tsensor.c
                  __pa_29   0x00713a    program     static /projet/faziasep/FEE/Step_4/conception/PIC/PIC_V4_OK/src/myfunc/Tsensor.c
                  __pa_30   0x007144    program     static /projet/faziasep/FEE/Step_4/conception/PIC/PIC_V4_OK/src/myfunc/Tsensor.c
                  __pa_31   0x007152    program     static /projet/faziasep/FEE/Step_4/conception/PIC/PIC_V4_OK/src/myfunc/Tsensor.c
                  __pa_32   0x007160    program     static /projet/faziasep/FEE/Step_4/conception/PIC/PIC_V4_OK/src/myfunc/Tsensor.c
                  __pa_33   0x00716e    program     static /projet/faziasep/FEE/Step_4/conception/PIC/PIC_V4_OK/src/myfunc/Tsensor.c
                  __pa_34   0x00717c    program     static /projet/faziasep/FEE/Step_4/conception/PIC/PIC_V4_OK/src/myfunc/Tsensor.c
                  __pa_35   0x007184    program     static /projet/faziasep/FEE/Step_4/conception/PIC/PIC_V4_OK/src/myfunc/Tsensor.c
                  __pa_36   0x00718e    program     static /projet/faziasep/FEE/Step_4/conception/PIC/PIC_V4_OK/src/myfunc/Tsensor.c
      get_PIC_AD_voltages   0x007196    program     extern /projet/faziasep/FEE/Step_4/conception/PIC/PIC_V4_OK/src/myfunc/analog.c
              getVoltages   0x0071d8    program     extern /projet/faziasep/FEE/Step_4/conception/PIC/PIC_V4_OK/src/myfunc/analog.c
         getLTCswVoltages   0x0073f4    program     extern /projet/faziasep/FEE/Step_4/conception/PIC/PIC_V4_OK/src/myfunc/analog.c
        getLTClinVoltages   0x00744e    program     extern /projet/faziasep/FEE/Step_4/conception/PIC/PIC_V4_OK/src/myfunc/analog.c
       getLTC2308Voltages   0x0074a8    program     extern /projet/faziasep/FEE/Step_4/conception/PIC/PIC_V4_OK/src/myfunc/analog.c
                   __pa_0   0x0075bc    program     static /projet/faziasep/FEE/Step_4/conception/PIC/PIC_V4_OK/src/myfunc/analog.c
                   __pa_1   0x0075ce    program     static /projet/faziasep/FEE/Step_4/conception/PIC/PIC_V4_OK/src/myfunc/analog.c
                   __pa_2   0x0075f0    program     static /projet/faziasep/FEE/Step_4/conception/PIC/PIC_V4_OK/src/myfunc/analog.c
                   __pa_3   0x007604    program     static /projet/faziasep/FEE/Step_4/conception/PIC/PIC_V4_OK/src/myfunc/analog.c
                   __pa_4   0x007632    program     static /projet/faziasep/FEE/Step_4/conception/PIC/PIC_V4_OK/src/myfunc/analog.c
                   __pa_5   0x007640    program     static /projet/faziasep/FEE/Step_4/conception/PIC/PIC_V4_OK/src/myfunc/analog.c
                   __pa_6   0x007652    program     static /projet/faziasep/FEE/Step_4/conception/PIC/PIC_V4_OK/src/myfunc/analog.c
                   __pa_7   0x00765c    program     static /projet/faziasep/FEE/Step_4/conception/PIC/PIC_V4_OK/src/myfunc/analog.c
                   __pa_8   0x007668    program     static /projet/faziasep/FEE/Step_4/conception/PIC/PIC_V4_OK/src/myfunc/analog.c
                   __pa_9   0x00766e    program     static /projet/faziasep/FEE/Step_4/conception/PIC/PIC_V4_OK/src/myfunc/analog.c
                  __pa_10   0x007696    program     static /projet/faziasep/FEE/Step_4/conception/PIC/PIC_V4_OK/src/myfunc/analog.c
                  __pa_11   0x0076ac    program     static /projet/faziasep/FEE/Step_4/conception/PIC/PIC_V4_OK/src/myfunc/analog.c
                  __pa_12   0x0076c0    program     static /projet/faziasep/FEE/Step_4/conception/PIC/PIC_V4_OK/src/myfunc/analog.c
                  __pa_13   0x0076de    program     static /projet/faziasep/FEE/Step_4/conception/PIC/PIC_V4_OK/src/myfunc/analog.c
                  __pa_14   0x0076ea    program     static /projet/faziasep/FEE/Step_4/conception/PIC/PIC_V4_OK/src/myfunc/analog.c
                  __pa_15   0x0076fe    program     static /projet/faziasep/FEE/Step_4/conception/PIC/PIC_V4_OK/src/myfunc/analog.c
                  __pa_16   0x00770e    program     static /projet/faziasep/FEE/Step_4/conception/PIC/PIC_V4_OK/src/myfunc/analog.c
                  __pa_17   0x00771e    program     static /projet/faziasep/FEE/Step_4/conception/PIC/PIC_V4_OK/src/myfunc/analog.c
                  __pa_18   0x00772e    program     static /projet/faziasep/FEE/Step_4/conception/PIC/PIC_V4_OK/src/myfunc/analog.c
                  __pa_19   0x00773c    program     static /projet/faziasep/FEE/Step_4/conception/PIC/PIC_V4_OK/src/myfunc/analog.c
                  __pa_20   0x00774a    program     static /projet/faziasep/FEE/Step_4/conception/PIC/PIC_V4_OK/src/myfunc/analog.c
                  __pa_21   0x007754    program     static /projet/faziasep/FEE/Step_4/conception/PIC/PIC_V4_OK/src/myfunc/analog.c
                  __pa_22   0x00775e    program     static /projet/faziasep/FEE/Step_4/conception/PIC/PIC_V4_OK/src/myfunc/analog.c
                  __pa_23   0x00776c    program     static /projet/faziasep/FEE/Step_4/conception/PIC/PIC_V4_OK/src/myfunc/analog.c
                  __pa_24   0x007790    program     static /projet/faziasep/FEE/Step_4/conception/PIC/PIC_V4_OK/src/myfunc/analog.c
                  __pa_25   0x00779e    program     static /projet/faziasep/FEE/Step_4/conception/PIC/PIC_V4_OK/src/myfunc/analog.c
                  __pa_26   0x0077aa    program     static /projet/faziasep/FEE/Step_4/conception/PIC/PIC_V4_OK/src/myfunc/analog.c
                  __pa_27   0x0077bc    program     static /projet/faziasep/FEE/Step_4/conception/PIC/PIC_V4_OK/src/myfunc/analog.c
                  __pa_28   0x0077ca    program     static /projet/faziasep/FEE/Step_4/conception/PIC/PIC_V4_OK/src/myfunc/analog.c
                  __pa_29   0x0077d8    program     static /projet/faziasep/FEE/Step_4/conception/PIC/PIC_V4_OK/src/myfunc/analog.c
                  __pa_30   0x0077e6    program     static /projet/faziasep/FEE/Step_4/conception/PIC/PIC_V4_OK/src/myfunc/analog.c
                  __pa_31   0x0077f4    program     static /projet/faziasep/FEE/Step_4/conception/PIC/PIC_V4_OK/src/myfunc/analog.c
                  __pa_32   0x007802    program     static /projet/faziasep/FEE/Step_4/conception/PIC/PIC_V4_OK/src/myfunc/analog.c
                  __pa_33   0x007810    program     static /projet/faziasep/FEE/Step_4/conception/PIC/PIC_V4_OK/src/myfunc/analog.c
                  __pa_34   0x007820    program     static /projet/faziasep/FEE/Step_4/conception/PIC/PIC_V4_OK/src/myfunc/analog.c
                  __pa_35   0x00782c    program     static /projet/faziasep/FEE/Step_4/conception/PIC/PIC_V4_OK/src/myfunc/analog.c
                  __pa_36   0x007834    program     static /projet/faziasep/FEE/Step_4/conception/PIC/PIC_V4_OK/src/myfunc/analog.c
                  __pa_37   0x007844    program     static /projet/faziasep/FEE/Step_4/conception/PIC/PIC_V4_OK/src/myfunc/analog.c
                  __pa_38   0x007850    program     static /projet/faziasep/FEE/Step_4/conception/PIC/PIC_V4_OK/src/myfunc/analog.c
                  __pa_39   0x00785e    program     static /projet/faziasep/FEE/Step_4/conception/PIC/PIC_V4_OK/src/myfunc/analog.c
                 FLO1632U   0x00786c    program     extern C:\MCC18\v3_39\src\traditional\math\cast16FP.asm
                 FLO1632S   0x007870    program     extern C:\MCC18\v3_39\src\traditional\math\cast16FP.asm
                jI2F16Beg   0x007880    program     static C:\MCC18\v3_39\src\traditional\math\cast16FP.asm
                    FPS32   0x007896    program     extern C:\MCC18\v3_39\src\traditional\math\addFP.asm
                    FPA32   0x007898    program     extern C:\MCC18\v3_39\src\traditional\math\addFP.asm
                jBANotInf   0x0078b6    program     static C:\MCC18\v3_39\src\traditional\math\addFP.asm
                 jANotInf   0x0078c0    program     static C:\MCC18\v3_39\src\traditional\math\addFP.asm
                 jBNotInf   0x0078ce    program     static C:\MCC18\v3_39\src\traditional\math\addFP.asm
            jDifOrPosSign   0x0078e2    program     static C:\MCC18\v3_39\src\traditional\math\addFP.asm
             jNotBothZero   0x0078e6    program     static C:\MCC18\v3_39\src\traditional\math\addFP.asm
                 jAltBexp   0x007912    program     static C:\MCC18\v3_39\src\traditional\math\addFP.asm
              jAandWsetup   0x007924    program     static C:\MCC18\v3_39\src\traditional\math\addFP.asm
                 jANotNeg   0x007954    program     static C:\MCC18\v3_39\src\traditional\math\addFP.asm
                 jWNotNeg   0x007968    program     static C:\MCC18\v3_39\src\traditional\math\addFP.asm
               jShiftLoop   0x00796e    program     static C:\MCC18\v3_39\src\traditional\math\addFP.asm
               jShiftDone   0x00797c    program     static C:\MCC18\v3_39\src\traditional\math\addFP.asm
                jSignDone   0x0079ac    program     static C:\MCC18\v3_39\src\traditional\math\addFP.asm
               jFinalSign   0x0079bc    program     static C:\MCC18\v3_39\src\traditional\math\addFP.asm
                    FPD32   0x0079c4    program     extern C:\MCC18\v3_39\src\traditional\math\divFP.asm
                 jANotInf   0x0079e2    program     static C:\MCC18\v3_39\src\traditional\math\divFP.asm
              jSignedZero   0x0079ec    program     static C:\MCC18\v3_39\src\traditional\math\divFP.asm
                jANotZero   0x0079f6    program     static C:\MCC18\v3_39\src\traditional\math\divFP.asm
                    jLoop   0x007a1e    program     static C:\MCC18\v3_39\src\traditional\math\divFP.asm
                jNoAdjust   0x007a42    program     static C:\MCC18\v3_39\src\traditional\math\divFP.asm
                    jNext   0x007a44    program     static C:\MCC18\v3_39\src\traditional\math\divFP.asm
                    FPM32   0x007a6a    program     extern C:\MCC18\v3_39\src\traditional\math\mulFP.asm
                 jANotInf   0x007a88    program     static C:\MCC18\v3_39\src\traditional\math\mulFP.asm
              jBothFinite   0x007a96    program     static C:\MCC18\v3_39\src\traditional\math\mulFP.asm
                jHaveZero   0x007a9e    program     static C:\MCC18\v3_39\src\traditional\math\mulFP.asm
             jBothNotZero   0x007aa2    program     static C:\MCC18\v3_39\src\traditional\math\mulFP.asm
                 FXD0808S   0x007b44    program     extern C:\MCC18\v3_39\src\traditional\math\fxd0808s.asm
                  DA0808S   0x007b50    program     static C:\MCC18\v3_39\src\traditional\math\fxd0808s.asm
                   D0808S   0x007b5a    program     static C:\MCC18\v3_39\src\traditional\math\fxd0808s.asm
                 D0808SOK   0x007b64    program     static C:\MCC18\v3_39\src\traditional\math\fxd0808s.asm
                D0808SNEG   0x007b68    program     static C:\MCC18\v3_39\src\traditional\math\fxd0808s.asm
                  D0808SX   0x007b6e    program     static C:\MCC18\v3_39\src\traditional\math\fxd0808s.asm
                 FXD1616S   0x007b78    program     extern C:\MCC18\v3_39\src\traditional\math\fxd1616s.asm
                  DA1616S   0x007b8a    program     static C:\MCC18\v3_39\src\traditional\math\fxd1616s.asm
                   D1616S   0x007b9a    program     static C:\MCC18\v3_39\src\traditional\math\fxd1616s.asm
                 D1616SOK   0x007ba4    program     static C:\MCC18\v3_39\src\traditional\math\fxd1616s.asm
                D1616SNEG   0x007ba8    program     static C:\MCC18\v3_39\src\traditional\math\fxd1616s.asm
                  D1616SX   0x007bba    program     static C:\MCC18\v3_39\src\traditional\math\fxd1616s.asm
                 FXD3232S   0x007bc4    program     extern C:\MCC18\v3_39\src\traditional\math\fxd3232s.asm
                  DA3232S   0x007bde    program     static C:\MCC18\v3_39\src\traditional\math\fxd3232s.asm
                   D3232S   0x007bf4    program     static C:\MCC18\v3_39\src\traditional\math\fxd3232s.asm
                 D3232SOK   0x007bfe    program     static C:\MCC18\v3_39\src\traditional\math\fxd3232s.asm
                D3232SNEG   0x007c02    program     static C:\MCC18\v3_39\src\traditional\math\fxd3232s.asm
                  D3232SX   0x007c22    program     static C:\MCC18\v3_39\src\traditional\math\fxd3232s.asm
                 FXM1616S   0x007c2c    program     extern C:\MCC18\v3_39\src\traditional\math\fxm1616s.asm
               TSIGN1616A   0x007c78    program     static C:\MCC18\v3_39\src\traditional\math\fxm1616s.asm
                 FXM1616U   0x007c86    program     extern C:\MCC18\v3_39\src\traditional\math\fxm1616u.asm
                  INT3216   0x007cc2    program     extern C:\MCC18\v3_39\src\traditional\math\castFP16.asm
                     jMax   0x007cd2    program     static C:\MCC18\v3_39\src\traditional\math\castFP16.asm
                  jMaxPos   0x007cd6    program     static C:\MCC18\v3_39\src\traditional\math\castFP16.asm
                  jMaxNeg   0x007ce0    program     static C:\MCC18\v3_39\src\traditional\math\castFP16.asm
                    jZero   0x007ce8    program     static C:\MCC18\v3_39\src\traditional\math\castFP16.asm
                  jNotInf   0x007cee    program     static C:\MCC18\v3_39\src\traditional\math\castFP16.asm
                    jLoop   0x007cfe    program     static C:\MCC18\v3_39\src\traditional\math\castFP16.asm
                jLoopExit   0x007d0e    program     static C:\MCC18\v3_39\src\traditional\math\castFP16.asm
                    jExit   0x007d1e    program     static C:\MCC18\v3_39\src\traditional\math\castFP16.asm
            __FpReturnNaN   0x007d20    program     extern C:\MCC18\v3_39\src\traditional\math\packFP.asm
                 __FpExit   0x007d2c    program     extern C:\MCC18\v3_39\src\traditional\math\packFP.asm
        __FpReturnSignInf   0x007d2e    program     extern C:\MCC18\v3_39\src\traditional\math\packFP.asm
         __FpReturnNegInf   0x007d32    program     extern C:\MCC18\v3_39\src\traditional\math\packFP.asm
         __FpReturnPosInf   0x007d38    program     extern C:\MCC18\v3_39\src\traditional\math\packFP.asm
           jReturnPosInf0   0x007d3c    program     static C:\MCC18\v3_39\src\traditional\math\packFP.asm
               jZero1and2   0x007d40    program     static C:\MCC18\v3_39\src\traditional\math\packFP.asm
       __FpReturnSignZero   0x007d46    program     extern C:\MCC18\v3_39\src\traditional\math\packFP.asm
        __FpReturnNegZero   0x007d4a    program     extern C:\MCC18\v3_39\src\traditional\math\packFP.asm
        __FpReturnPosZero   0x007d52    program     extern C:\MCC18\v3_39\src\traditional\math\packFP.asm
                 __FpPack   0x007d58    program     extern C:\MCC18\v3_39\src\traditional\math\packFP.asm
                  jPkLoop   0x007d66    program     static C:\MCC18\v3_39\src\traditional\math\packFP.asm
             jPkShiftDone   0x007d82    program     static C:\MCC18\v3_39\src\traditional\math\packFP.asm
               jPkRoundIt   0x007d98    program     static C:\MCC18\v3_39\src\traditional\math\packFP.asm
             jPkRoundDone   0x007db0    program     static C:\MCC18\v3_39\src\traditional\math\packFP.asm
              __FpReturnW   0x007db0    program     extern C:\MCC18\v3_39\src\traditional\math\packFP.asm
              __FpUnPackA   0x007dd0    program     extern C:\MCC18\v3_39\src\traditional\math\UnpackFP.asm
                  jUnpkA1   0x007dda    program     static C:\MCC18\v3_39\src\traditional\math\UnpackFP.asm
                 jUnpkANZ   0x007de8    program     static C:\MCC18\v3_39\src\traditional\math\UnpackFP.asm
                  jUnpkA2   0x007df2    program     static C:\MCC18\v3_39\src\traditional\math\UnpackFP.asm
                 jUnpkNaN   0x007dfc    program     static C:\MCC18\v3_39\src\traditional\math\UnpackFP.asm
              __FpUnPackB   0x007e00    program     extern C:\MCC18\v3_39\src\traditional\math\UnpackFP.asm
                  jUnpkB1   0x007e0a    program     static C:\MCC18\v3_39\src\traditional\math\UnpackFP.asm
                 jUnpkBNZ   0x007e18    program     static C:\MCC18\v3_39\src\traditional\math\UnpackFP.asm
                  jUnpkB2   0x007e22    program     static C:\MCC18\v3_39\src\traditional\math\UnpackFP.asm
                 adc_init   0x007e2c    program     extern /projet/faziasep/FEE/Step_4/conception/PIC/PIC_V4_OK/src/myfunc/ads8332.c
             leak_current   0x007e6e    program     extern /projet/faziasep/FEE/Step_4/conception/PIC/PIC_V4_OK/src/myfunc/ads8332.c
             adc_getvalue   0x0080c0    program     extern /projet/faziasep/FEE/Step_4/conception/PIC/PIC_V4_OK/src/myfunc/ads8332.c
                   __pa_0   0x008164    program     static /projet/faziasep/FEE/Step_4/conception/PIC/PIC_V4_OK/src/myfunc/ads8332.c
                   __pa_1   0x00817e    program     static /projet/faziasep/FEE/Step_4/conception/PIC/PIC_V4_OK/src/myfunc/ads8332.c
                   __pa_2   0x00819a    program     static /projet/faziasep/FEE/Step_4/conception/PIC/PIC_V4_OK/src/myfunc/ads8332.c
                   __pa_3   0x0081e6    program     static /projet/faziasep/FEE/Step_4/conception/PIC/PIC_V4_OK/src/myfunc/ads8332.c
                   __pa_4   0x008200    program     static /projet/faziasep/FEE/Step_4/conception/PIC/PIC_V4_OK/src/myfunc/ads8332.c
                   __pa_5   0x008218    program     static /projet/faziasep/FEE/Step_4/conception/PIC/PIC_V4_OK/src/myfunc/ads8332.c
                   __pa_6   0x008224    program     static /projet/faziasep/FEE/Step_4/conception/PIC/PIC_V4_OK/src/myfunc/ads8332.c
                   __pa_7   0x008236    program     static /projet/faziasep/FEE/Step_4/conception/PIC/PIC_V4_OK/src/myfunc/ads8332.c
                   __pa_8   0x00823c    program     static /projet/faziasep/FEE/Step_4/conception/PIC/PIC_V4_OK/src/myfunc/ads8332.c
                   __pa_9   0x008252    program     static /projet/faziasep/FEE/Step_4/conception/PIC/PIC_V4_OK/src/myfunc/ads8332.c
                  __pa_10   0x008272    program     static /projet/faziasep/FEE/Step_4/conception/PIC/PIC_V4_OK/src/myfunc/ads8332.c
                  __pa_11   0x008284    program     static /projet/faziasep/FEE/Step_4/conception/PIC/PIC_V4_OK/src/myfunc/ads8332.c
                  __pa_12   0x00829e    program     static /projet/faziasep/FEE/Step_4/conception/PIC/PIC_V4_OK/src/myfunc/ads8332.c
                  __pa_13   0x0082b8    program     static /projet/faziasep/FEE/Step_4/conception/PIC/PIC_V4_OK/src/myfunc/ads8332.c
                  __pa_14   0x0082d0    program     static /projet/faziasep/FEE/Step_4/conception/PIC/PIC_V4_OK/src/myfunc/ads8332.c
                  __pa_15   0x0082e8    program     static /projet/faziasep/FEE/Step_4/conception/PIC/PIC_V4_OK/src/myfunc/ads8332.c
                  __pa_16   0x0082f4    program     static /projet/faziasep/FEE/Step_4/conception/PIC/PIC_V4_OK/src/myfunc/ads8332.c
                  __pa_17   0x0082fe    program     static /projet/faziasep/FEE/Step_4/conception/PIC/PIC_V4_OK/src/myfunc/ads8332.c
                  __pa_18   0x00830c    program     static /projet/faziasep/FEE/Step_4/conception/PIC/PIC_V4_OK/src/myfunc/ads8332.c
                  __pa_19   0x008314    program     static /projet/faziasep/FEE/Step_4/conception/PIC/PIC_V4_OK/src/myfunc/ads8332.c
                  __pa_20   0x008342    program     static /projet/faziasep/FEE/Step_4/conception/PIC/PIC_V4_OK/src/myfunc/ads8332.c
                  __pa_21   0x00834e    program     static /projet/faziasep/FEE/Step_4/conception/PIC/PIC_V4_OK/src/myfunc/ads8332.c
                  __pa_22   0x00835c    program     static /projet/faziasep/FEE/Step_4/conception/PIC/PIC_V4_OK/src/myfunc/ads8332.c
                  __pa_23   0x008368    program     static /projet/faziasep/FEE/Step_4/conception/PIC/PIC_V4_OK/src/myfunc/ads8332.c
                  __pa_24   0x008372    program     static /projet/faziasep/FEE/Step_4/conception/PIC/PIC_V4_OK/src/myfunc/ads8332.c
                  __pa_25   0x00837c    program     static /projet/faziasep/FEE/Step_4/conception/PIC/PIC_V4_OK/src/myfunc/ads8332.c
                  __pa_26   0x00838e    program     static /projet/faziasep/FEE/Step_4/conception/PIC/PIC_V4_OK/src/myfunc/ads8332.c
                  __pa_27   0x00839a    program     static /projet/faziasep/FEE/Step_4/conception/PIC/PIC_V4_OK/src/myfunc/ads8332.c
                  __pa_28   0x0083a2    program     static /projet/faziasep/FEE/Step_4/conception/PIC/PIC_V4_OK/src/myfunc/ads8332.c
                  __pa_29   0x0083b0    program     static /projet/faziasep/FEE/Step_4/conception/PIC/PIC_V4_OK/src/myfunc/ads8332.c
                  __pa_30   0x0083b8    program     static /projet/faziasep/FEE/Step_4/conception/PIC/PIC_V4_OK/src/myfunc/ads8332.c
               power10_32   0x0083c4    program     extern /projet/faziasep/FEE/Step_4/conception/PIC/PIC_V4_OK/src/myfunc/maths.c
         analyze_string32   0x00844e    program     extern /projet/faziasep/FEE/Step_4/conception/PIC/PIC_V4_OK/src/myfunc/maths.c
           analyze_string   0x00854a    program     extern /projet/faziasep/FEE/Step_4/conception/PIC/PIC_V4_OK/src/myfunc/maths.c
               chardectoi   0x008620    program     extern /projet/faziasep/FEE/Step_4/conception/PIC/PIC_V4_OK/src/myfunc/maths.c
               charhextoi   0x0086e6    program     extern /projet/faziasep/FEE/Step_4/conception/PIC/PIC_V4_OK/src/myfunc/maths.c
                  power10   0x0087ca    program     extern /projet/faziasep/FEE/Step_4/conception/PIC/PIC_V4_OK/src/myfunc/maths.c
                   __pa_0   0x008822    program     static /projet/faziasep/FEE/Step_4/conception/PIC/PIC_V4_OK/src/myfunc/maths.c
                   __pa_1   0x008830    program     static /projet/faziasep/FEE/Step_4/conception/PIC/PIC_V4_OK/src/myfunc/maths.c
                   __pa_2   0x00884c    program     static /projet/faziasep/FEE/Step_4/conception/PIC/PIC_V4_OK/src/myfunc/maths.c
                   __pa_3   0x00885e    program     static /projet/faziasep/FEE/Step_4/conception/PIC/PIC_V4_OK/src/myfunc/maths.c
                   __pa_4   0x00887c    program     static /projet/faziasep/FEE/Step_4/conception/PIC/PIC_V4_OK/src/myfunc/maths.c
                   __pa_5   0x00888e    program     static /projet/faziasep/FEE/Step_4/conception/PIC/PIC_V4_OK/src/myfunc/maths.c
                   __pa_6   0x0088aa    program     static /projet/faziasep/FEE/Step_4/conception/PIC/PIC_V4_OK/src/myfunc/maths.c
                   __pa_7   0x0088b6    program     static /projet/faziasep/FEE/Step_4/conception/PIC/PIC_V4_OK/src/myfunc/maths.c
                   __pa_8   0x0088c4    program     static /projet/faziasep/FEE/Step_4/conception/PIC/PIC_V4_OK/src/myfunc/maths.c
                   __pa_9   0x0088d2    program     static /projet/faziasep/FEE/Step_4/conception/PIC/PIC_V4_OK/src/myfunc/maths.c
                  __pa_10   0x0088dc    program     static /projet/faziasep/FEE/Step_4/conception/PIC/PIC_V4_OK/src/myfunc/maths.c
                  __pa_11   0x0088e4    program     static /projet/faziasep/FEE/Step_4/conception/PIC/PIC_V4_OK/src/myfunc/maths.c
                  __pa_12   0x0088f2    program     static /projet/faziasep/FEE/Step_4/conception/PIC/PIC_V4_OK/src/myfunc/maths.c
                  __pa_13   0x008900    program     static /projet/faziasep/FEE/Step_4/conception/PIC/PIC_V4_OK/src/myfunc/maths.c
                  __pa_14   0x00890e    program     static /projet/faziasep/FEE/Step_4/conception/PIC/PIC_V4_OK/src/myfunc/maths.c
                  __pa_15   0x008916    program     static /projet/faziasep/FEE/Step_4/conception/PIC/PIC_V4_OK/src/myfunc/maths.c
                  __pa_16   0x00891e    program     static /projet/faziasep/FEE/Step_4/conception/PIC/PIC_V4_OK/src/myfunc/maths.c
                  __pa_17   0x008928    program     static /projet/faziasep/FEE/Step_4/conception/PIC/PIC_V4_OK/src/myfunc/maths.c
                  __pa_18   0x008930    program     static /projet/faziasep/FEE/Step_4/conception/PIC/PIC_V4_OK/src/myfunc/maths.c
                  __pa_19   0x00893e    program     static /projet/faziasep/FEE/Step_4/conception/PIC/PIC_V4_OK/src/myfunc/maths.c
                  __pa_20   0x008946    program     static /projet/faziasep/FEE/Step_4/conception/PIC/PIC_V4_OK/src/myfunc/maths.c
       cbuffer_large_init   0x00894e    program     extern /projet/faziasep/FEE/Step_4/conception/PIC/PIC_V4_OK/src/cbuffer.c
      cbuffer_large_write   0x008994    program     extern /projet/faziasep/FEE/Step_4/conception/PIC/PIC_V4_OK/src/cbuffer.c
       cbuffer_large_read   0x0089c6    program     extern /projet/faziasep/FEE/Step_4/conception/PIC/PIC_V4_OK/src/cbuffer.c
cbuffer_large_getframe_length   0x0089ec    program     extern /projet/faziasep/FEE/Step_4/conception/PIC/PIC_V4_OK/src/cbuffer.c
   cbuffer_large_dumpdata   0x008b8c    program     extern /projet/faziasep/FEE/Step_4/conception/PIC/PIC_V4_OK/src/cbuffer.c
                   __pa_0   0x008b9a    program     static /projet/faziasep/FEE/Step_4/conception/PIC/PIC_V4_OK/src/cbuffer.c
                   __pa_1   0x008ba8    program     static /projet/faziasep/FEE/Step_4/conception/PIC/PIC_V4_OK/src/cbuffer.c
                   __pa_2   0x008bb4    program     static /projet/faziasep/FEE/Step_4/conception/PIC/PIC_V4_OK/src/cbuffer.c
                   __pa_3   0x008bc6    program     static /projet/faziasep/FEE/Step_4/conception/PIC/PIC_V4_OK/src/cbuffer.c
                   __pa_4   0x008bd2    program     static /projet/faziasep/FEE/Step_4/conception/PIC/PIC_V4_OK/src/cbuffer.c
                   __pa_5   0x008be0    program     static /projet/faziasep/FEE/Step_4/conception/PIC/PIC_V4_OK/src/cbuffer.c
                   __pa_6   0x008bec    program     static /projet/faziasep/FEE/Step_4/conception/PIC/PIC_V4_OK/src/cbuffer.c
                   __pa_7   0x008c00    program     static /projet/faziasep/FEE/Step_4/conception/PIC/PIC_V4_OK/src/cbuffer.c
                   __pa_8   0x008c0e    program     static /projet/faziasep/FEE/Step_4/conception/PIC/PIC_V4_OK/src/cbuffer.c
                   __pa_9   0x008c38    program     static /projet/faziasep/FEE/Step_4/conception/PIC/PIC_V4_OK/src/cbuffer.c
                  __pa_10   0x008c4e    program     static /projet/faziasep/FEE/Step_4/conception/PIC/PIC_V4_OK/src/cbuffer.c
                  __pa_11   0x008c5c    program     static /projet/faziasep/FEE/Step_4/conception/PIC/PIC_V4_OK/src/cbuffer.c
                  __pa_12   0x008c64    program     static /projet/faziasep/FEE/Step_4/conception/PIC/PIC_V4_OK/src/cbuffer.c
                  __pa_13   0x008c6c    program     static /projet/faziasep/FEE/Step_4/conception/PIC/PIC_V4_OK/src/cbuffer.c
                  __pa_14   0x008c74    program     static /projet/faziasep/FEE/Step_4/conception/PIC/PIC_V4_OK/src/cbuffer.c
                  __pa_15   0x008c7c    program     static /projet/faziasep/FEE/Step_4/conception/PIC/PIC_V4_OK/src/cbuffer.c
                  __pa_16   0x008c88    program     static /projet/faziasep/FEE/Step_4/conception/PIC/PIC_V4_OK/src/cbuffer.c
                    rdspi   0x008c90    program     extern /projet/faziasep/FEE/Step_4/conception/PIC/PIC_V4_OK/src/myfunc/spi.c
                    wrspi   0x008d50    program     extern /projet/faziasep/FEE/Step_4/conception/PIC/PIC_V4_OK/src/myfunc/spi.c
          reset_both_fpga   0x008dfa    program     extern /projet/faziasep/FEE/Step_4/conception/PIC/PIC_V4_OK/src/myfunc/spi.c
                myputsspi   0x008e1c    program     extern /projet/faziasep/FEE/Step_4/conception/PIC/PIC_V4_OK/src/myfunc/spi.c
       set_off_V_preamp3a   0x008e7e    program     extern /projet/faziasep/FEE/Step_4/conception/PIC/PIC_V4_OK/src/myfunc/spi.c
       set_off_V_preamp3b   0x008e98    program     extern /projet/faziasep/FEE/Step_4/conception/PIC/PIC_V4_OK/src/myfunc/spi.c
       set_off_V_preamp2a   0x008eb2    program     extern /projet/faziasep/FEE/Step_4/conception/PIC/PIC_V4_OK/src/myfunc/spi.c
       set_off_V_preamp2b   0x008ecc    program     extern /projet/faziasep/FEE/Step_4/conception/PIC/PIC_V4_OK/src/myfunc/spi.c
       set_off_V_preamp1a   0x008ee6    program     extern /projet/faziasep/FEE/Step_4/conception/PIC/PIC_V4_OK/src/myfunc/spi.c
       set_off_V_preamp1b   0x008f00    program     extern /projet/faziasep/FEE/Step_4/conception/PIC/PIC_V4_OK/src/myfunc/spi.c
                   __pa_0   0x008f1a    program     static /projet/faziasep/FEE/Step_4/conception/PIC/PIC_V4_OK/src/myfunc/spi.c
                   __pa_1   0x008f2a    program     static /projet/faziasep/FEE/Step_4/conception/PIC/PIC_V4_OK/src/myfunc/spi.c
                   __pa_2   0x008f3c    program     static /projet/faziasep/FEE/Step_4/conception/PIC/PIC_V4_OK/src/myfunc/spi.c
                   __pa_3   0x008f48    program     static /projet/faziasep/FEE/Step_4/conception/PIC/PIC_V4_OK/src/myfunc/spi.c
                   __pa_4   0x008f56    program     static /projet/faziasep/FEE/Step_4/conception/PIC/PIC_V4_OK/src/myfunc/spi.c
                   __pa_5   0x008f62    program     static /projet/faziasep/FEE/Step_4/conception/PIC/PIC_V4_OK/src/myfunc/spi.c
                   __pa_6   0x008f72    program     static /projet/faziasep/FEE/Step_4/conception/PIC/PIC_V4_OK/src/myfunc/spi.c
                   __pa_7   0x008f76    program     static /projet/faziasep/FEE/Step_4/conception/PIC/PIC_V4_OK/src/myfunc/spi.c
                   __pa_8   0x008f84    program     static /projet/faziasep/FEE/Step_4/conception/PIC/PIC_V4_OK/src/myfunc/spi.c
                   __pa_9   0x008f92    program     static /projet/faziasep/FEE/Step_4/conception/PIC/PIC_V4_OK/src/myfunc/spi.c
                  __pa_10   0x008f9e    program     static /projet/faziasep/FEE/Step_4/conception/PIC/PIC_V4_OK/src/myfunc/spi.c
                  __pa_11   0x008fa6    program     static /projet/faziasep/FEE/Step_4/conception/PIC/PIC_V4_OK/src/myfunc/spi.c
                  __pa_12   0x008fb0    program     static /projet/faziasep/FEE/Step_4/conception/PIC/PIC_V4_OK/src/myfunc/spi.c
                  __pa_13   0x008fba    program     static /projet/faziasep/FEE/Step_4/conception/PIC/PIC_V4_OK/src/myfunc/spi.c
                  __pa_14   0x008fc0    program     static /projet/faziasep/FEE/Step_4/conception/PIC/PIC_V4_OK/src/myfunc/spi.c
               frame_init   0x008fc8    program     extern /projet/faziasep/FEE/Step_4/conception/PIC/PIC_V4_OK/src/frame.c
              frame_docrc   0x008fd0    program     extern /projet/faziasep/FEE/Step_4/conception/PIC/PIC_V4_OK/src/frame.c
             frame_getidb   0x00904e    program     extern /projet/faziasep/FEE/Step_4/conception/PIC/PIC_V4_OK/src/frame.c
             frame_getseq   0x0090a8    program     extern /projet/faziasep/FEE/Step_4/conception/PIC/PIC_V4_OK/src/frame.c
            frame_getdata   0x0090c6    program     extern /projet/faziasep/FEE/Step_4/conception/PIC/PIC_V4_OK/src/frame.c
             frame_getcrc   0x00913a    program     extern /projet/faziasep/FEE/Step_4/conception/PIC/PIC_V4_OK/src/frame.c
                   __pa_0   0x00919e    program     static /projet/faziasep/FEE/Step_4/conception/PIC/PIC_V4_OK/src/frame.c
                   __pa_1   0x0091ac    program     static /projet/faziasep/FEE/Step_4/conception/PIC/PIC_V4_OK/src/frame.c
                   __pa_2   0x0091be    program     static /projet/faziasep/FEE/Step_4/conception/PIC/PIC_V4_OK/src/frame.c
                   __pa_3   0x0091ea    program     static /projet/faziasep/FEE/Step_4/conception/PIC/PIC_V4_OK/src/frame.c
                   __pa_4   0x0091f6    program     static /projet/faziasep/FEE/Step_4/conception/PIC/PIC_V4_OK/src/frame.c
                   __pa_5   0x00920c    program     static /projet/faziasep/FEE/Step_4/conception/PIC/PIC_V4_OK/src/frame.c
                   __pa_6   0x009222    program     static /projet/faziasep/FEE/Step_4/conception/PIC/PIC_V4_OK/src/frame.c
                   __pa_7   0x009230    program     static /projet/faziasep/FEE/Step_4/conception/PIC/PIC_V4_OK/src/frame.c
                   __pa_8   0x009244    program     static /projet/faziasep/FEE/Step_4/conception/PIC/PIC_V4_OK/src/frame.c
                   __pa_9   0x00924e    program     static /projet/faziasep/FEE/Step_4/conception/PIC/PIC_V4_OK/src/frame.c
                  __pa_10   0x00925e    program     static /projet/faziasep/FEE/Step_4/conception/PIC/PIC_V4_OK/src/frame.c
                  __pa_11   0x00926c    program     static /projet/faziasep/FEE/Step_4/conception/PIC/PIC_V4_OK/src/frame.c
                  __pa_12   0x00927a    program     static /projet/faziasep/FEE/Step_4/conception/PIC/PIC_V4_OK/src/frame.c
                  __pa_13   0x009288    program     static /projet/faziasep/FEE/Step_4/conception/PIC/PIC_V4_OK/src/frame.c
                  __pa_14   0x009296    program     static /projet/faziasep/FEE/Step_4/conception/PIC/PIC_V4_OK/src/frame.c
             uartbuf_init   0x00929e    program     extern /projet/faziasep/FEE/Step_4/conception/PIC/PIC_V4_OK/src/uartbuf.c
             uartbuf_dump   0x0092cc    program     extern /projet/faziasep/FEE/Step_4/conception/PIC/PIC_V4_OK/src/uartbuf.c
            uartbuf_flush   0x0092f6    program     extern /projet/faziasep/FEE/Step_4/conception/PIC/PIC_V4_OK/src/uartbuf.c
         uartbuf_getframe   0x009352    program     extern /projet/faziasep/FEE/Step_4/conception/PIC/PIC_V4_OK/src/uartbuf.c
         uartbuf_putframe   0x0093de    program     extern /projet/faziasep/FEE/Step_4/conception/PIC/PIC_V4_OK/src/uartbuf.c
                   __pa_0   0x009478    program     static /projet/faziasep/FEE/Step_4/conception/PIC/PIC_V4_OK/src/uartbuf.c
                   __pa_1   0x009498    program     static /projet/faziasep/FEE/Step_4/conception/PIC/PIC_V4_OK/src/uartbuf.c
                   __pa_2   0x0094a8    program     static /projet/faziasep/FEE/Step_4/conception/PIC/PIC_V4_OK/src/uartbuf.c
                   __pa_3   0x0094b6    program     static /projet/faziasep/FEE/Step_4/conception/PIC/PIC_V4_OK/src/uartbuf.c
                   __pa_4   0x0094c8    program     static /projet/faziasep/FEE/Step_4/conception/PIC/PIC_V4_OK/src/uartbuf.c
                   __pa_5   0x0094d4    program     static /projet/faziasep/FEE/Step_4/conception/PIC/PIC_V4_OK/src/uartbuf.c
                   __pa_6   0x0094e6    program     static /projet/faziasep/FEE/Step_4/conception/PIC/PIC_V4_OK/src/uartbuf.c
                   __pa_7   0x0094f4    program     static /projet/faziasep/FEE/Step_4/conception/PIC/PIC_V4_OK/src/uartbuf.c
                   __pa_8   0x0094fe    program     static /projet/faziasep/FEE/Step_4/conception/PIC/PIC_V4_OK/src/uartbuf.c
                   __pa_9   0x009510    program     static /projet/faziasep/FEE/Step_4/conception/PIC/PIC_V4_OK/src/uartbuf.c
                  __pa_10   0x009518    program     static /projet/faziasep/FEE/Step_4/conception/PIC/PIC_V4_OK/src/uartbuf.c
                  __pa_11   0x009528    program     static /projet/faziasep/FEE/Step_4/conception/PIC/PIC_V4_OK/src/uartbuf.c
                 setparam   0x009534    program     extern /projet/faziasep/FEE/Step_4/conception/PIC/PIC_V4_OK/src/myfunc/wr_eeprom.c
               storeparam   0x009646    program     extern /projet/faziasep/FEE/Step_4/conception/PIC/PIC_V4_OK/src/myfunc/wr_eeprom.c
                  EEWrite   0x0096ac    program     extern /projet/faziasep/FEE/Step_4/conception/PIC/PIC_V4_OK/src/myfunc/wr_eeprom.c
                   EERead   0x0096dc    program     extern /projet/faziasep/FEE/Step_4/conception/PIC/PIC_V4_OK/src/myfunc/wr_eeprom.c
                   __pa_0   0x0096f4    program     static /projet/faziasep/FEE/Step_4/conception/PIC/PIC_V4_OK/src/myfunc/wr_eeprom.c
                   __pa_1   0x00972e    program     static /projet/faziasep/FEE/Step_4/conception/PIC/PIC_V4_OK/src/myfunc/wr_eeprom.c
                   __pa_2   0x009754    program     static /projet/faziasep/FEE/Step_4/conception/PIC/PIC_V4_OK/src/myfunc/wr_eeprom.c
                   __pa_3   0x009760    program     static /projet/faziasep/FEE/Step_4/conception/PIC/PIC_V4_OK/src/myfunc/wr_eeprom.c
                   __pa_4   0x00977a    program     static /projet/faziasep/FEE/Step_4/conception/PIC/PIC_V4_OK/src/myfunc/wr_eeprom.c
                   __pa_5   0x00978a    program     static /projet/faziasep/FEE/Step_4/conception/PIC/PIC_V4_OK/src/myfunc/wr_eeprom.c
                   __pa_6   0x009798    program     static /projet/faziasep/FEE/Step_4/conception/PIC/PIC_V4_OK/src/myfunc/wr_eeprom.c
                   __pa_7   0x0097a6    program     static /projet/faziasep/FEE/Step_4/conception/PIC/PIC_V4_OK/src/myfunc/wr_eeprom.c
                     htoi   0x0097b8    program     extern /projet/faziasep/FEE/Step_4/conception/PIC/PIC_V4_OK/src/utils.c
                   __pa_0   0x0098a4    program     static /projet/faziasep/FEE/Step_4/conception/PIC/PIC_V4_OK/src/utils.c
                   __pa_1   0x0098b2    program     static /projet/faziasep/FEE/Step_4/conception/PIC/PIC_V4_OK/src/utils.c
                   __pa_2   0x0098be    program     static /projet/faziasep/FEE/Step_4/conception/PIC/PIC_V4_OK/src/utils.c
                     atoi   0x0098c8    program     extern C:\MCC18\v3_39\src\traditional\stdclib\atoi.asm
                  jSkipWS   0x0098f6    program     static C:\MCC18\v3_39\src\traditional\stdclib\atoi.asm
                 jSkipWS1   0x009908    program     static C:\MCC18\v3_39\src\traditional\stdclib\atoi.asm
                 jTstSign   0x00990c    program     static C:\MCC18\v3_39\src\traditional\stdclib\atoi.asm
                jTstSign1   0x009918    program     static C:\MCC18\v3_39\src\traditional\stdclib\atoi.asm
                jTstSign2   0x00991e    program     static C:\MCC18\v3_39\src\traditional\stdclib\atoi.asm
                    jLoop   0x009920    program     static C:\MCC18\v3_39\src\traditional\stdclib\atoi.asm
                jTstSign3   0x009920    program     static C:\MCC18\v3_39\src\traditional\stdclib\atoi.asm
                 jEndLoop   0x00996e    program     static C:\MCC18\v3_39\src\traditional\stdclib\atoi.asm
                     jEnd   0x009986    program     static C:\MCC18\v3_39\src\traditional\stdclib\atoi.asm
                   memset   0x0099b2    program     extern C:\MCC18\v3_39\src\traditional\stdclib\memset.asm
                    jLoop   0x0099c6    program     static C:\MCC18\v3_39\src\traditional\stdclib\memset.asm
              _2jContinue   0x0099d2    program     static C:\MCC18\v3_39\src\traditional\stdclib\memset.asm
                   _3jEnd   0x0099dc    program     static C:\MCC18\v3_39\src\traditional\stdclib\memset.asm
                     jEnd   0x0099e4    program     static C:\MCC18\v3_39\src\traditional\stdclib\memset.asm
                   strlen   0x0099e6    program     extern C:\MCC18\v3_39\src\traditional\stdclib\strlen.asm
                    jLoop   0x0099f6    program     static C:\MCC18\v3_39\src\traditional\stdclib\strlen.asm
                     jEnd   0x009a00    program     static C:\MCC18\v3_39\src\traditional\stdclib\strlen.asm
                  strncpy   0x009a02    program     extern C:\MCC18\v3_39\src\traditional\stdclib\strncpy.asm
                    jLoop   0x009a2a    program     static C:\MCC18\v3_39\src\traditional\stdclib\strncpy.asm
              _4jContinue   0x009a36    program     static C:\MCC18\v3_39\src\traditional\stdclib\strncpy.asm
                   _5jEnd   0x009a40    program     static C:\MCC18\v3_39\src\traditional\stdclib\strncpy.asm
                     jEnd   0x009a4c    program     static C:\MCC18\v3_39\src\traditional\stdclib\strncpy.asm
                _do_cinit   0x009a5e    program     extern C:\MCC18\v3_39\src\traditional\startup\c018i.c
                     test   0x009a78    program     static                          
                copy_loop   0x009ad0    program     static                          
            copy_one_byte   0x009ad6    program     static                          
             done_copying   0x009ae4    program     static                          
       ___return_lbl00002   0x009afa    program     static                          
                     done   0x009afa    program     static                          
                  FXM3232   0x009afc    program     extern C:\MCC18\v3_39\src\traditional\math\fxm3232.c
       ___return_lbl00000   0x009b6a    program     static                          
                  OpenSPI   0x009b6c    program     extern C:\MCC18\v3_39\src\pmc_common\SPI\spi_open.c
                 FXD3232U   0x009bd6    program     extern C:\MCC18\v3_39\src\traditional\math\fxd3232u.c
                     loop   0x009be4    program     static                          
                   _false   0x009c18    program     static                          
       ___return_lbl00000   0x009c1c    program     static                          
               OpenTimer3   0x009c1e    program     extern C:\MCC18\v3_39\src\pmc_common\Timers\t3open.c
               OpenTimer1   0x009c60    program     extern C:\MCC18\v3_39\src\pmc_common\Timers\t1open.c
                ReadUSART   0x009ca2    program     extern C:\MCC18\v3_39\src\pmc_common\USART\uread.c
               ReadTimer1   0x009ce0    program     extern C:\MCC18\v3_39\src\pmc_common\Timers\t1read.c
                 WriteSPI   0x009d1e    program     extern C:\MCC18\v3_39\src\pmc_common\SPI\spi_writ.c
              WriteTimer1   0x009d5a    program     extern C:\MCC18\v3_39\src\pmc_common\Timers\t1write.c
               __string_7   0x009d92    program     static /projet/faziasep/FEE/Step_4/conception/PIC/PIC_V4_OK/src/functions.c
               __string_6   0x009da1    program     static /projet/faziasep/FEE/Step_4/conception/PIC/PIC_V4_OK/src/functions.c
               __string_5   0x009daa    program     static /projet/faziasep/FEE/Step_4/conception/PIC/PIC_V4_OK/src/functions.c
               __string_4   0x009db0    program     static /projet/faziasep/FEE/Step_4/conception/PIC/PIC_V4_OK/src/functions.c
               __string_3   0x009db7    program     static /projet/faziasep/FEE/Step_4/conception/PIC/PIC_V4_OK/src/functions.c
               __string_2   0x009dbc    program     static /projet/faziasep/FEE/Step_4/conception/PIC/PIC_V4_OK/src/functions.c
               __string_1   0x009dc1    program     static /projet/faziasep/FEE/Step_4/conception/PIC/PIC_V4_OK/src/functions.c
               __string_0   0x009dc5    program     static /projet/faziasep/FEE/Step_4/conception/PIC/PIC_V4_OK/src/functions.c
               OpenTimer2   0x009dc8    program     extern C:\MCC18\v3_39\src\pmc_common\Timers\t2open.c
             Delay10KTCYx   0x009dfe    program     extern C:\MCC18\v3_39\src\traditional\delays\d10ktcyx.asm
                    D10Kx   0x009e08    program     static C:\MCC18\v3_39\src\traditional\delays\d10ktcyx.asm
                   D10K_1   0x009e0a    program     static C:\MCC18\v3_39\src\traditional\delays\d10ktcyx.asm
       _D10KTCYXCODE_0010   0x009e0e    program     static C:\MCC18\v3_39\src\traditional\delays\d10ktcyx.asm
                    D10Kl   0x009e16    program     static C:\MCC18\v3_39\src\traditional\delays\d10ktcyx.asm
       _D10KTCYXCODE_001C   0x009e1a    program     static C:\MCC18\v3_39\src\traditional\delays\d10ktcyx.asm
               WriteUSART   0x009e2c    program     extern C:\MCC18\v3_39\src\pmc_common\USART\uwrite.c
                  ReadSPI   0x009e5a    program     extern C:\MCC18\v3_39\src\pmc_common\SPI\spi_read.c
                 FXD1616U   0x009e88    program     extern C:\MCC18\v3_39\src\traditional\math\fxd1616u.c
                     loop   0x009e92    program     static                          
                  endloop   0x009eae    program     static                          
       ___return_lbl00000   0x009eb2    program     static                          
            __zero_memory   0x009eb4    program     extern C:\MCC18\v3_39\src\traditional\proc\p18F46K20.asm
               zero_block   0x009ec2    program     static C:\MCC18\v3_39\src\traditional\proc\p18F46K20.asm
                   loop_h   0x009ec2    program     static C:\MCC18\v3_39\src\traditional\proc\p18F46K20.asm
                compare_l   0x009eca    program     static C:\MCC18\v3_39\src\traditional\proc\p18F46K20.asm
                   loop_l   0x009ecc    program     static C:\MCC18\v3_39\src\traditional\proc\p18F46K20.asm
                 _startup   0x009ed4    program     extern C:\MCC18\v3_39\src\traditional\startup\c018i.c
                     loop   0x009ee4    program     static                          
       ___return_lbl00001   0x009eee    program     static                          
             Delay100TCYx   0x009ef0    program     extern C:\MCC18\v3_39\src\traditional\delays\d100tcyx.asm
       _D100TCYXCODE_0008   0x009ef8    program     static C:\MCC18\v3_39\src\traditional\delays\d100tcyx.asm
                    D100x   0x009efc    program     static C:\MCC18\v3_39\src\traditional\delays\d100tcyx.asm
                   D100_1   0x009efe    program     static C:\MCC18\v3_39\src\traditional\delays\d100tcyx.asm
       _D100TCYXCODE_0012   0x009f02    program     static C:\MCC18\v3_39\src\traditional\delays\d100tcyx.asm
       _D100TCYXCODE_0018   0x009f08    program     static C:\MCC18\v3_39\src\traditional\delays\d100tcyx.asm
                 FXD0808U   0x009f0c    program     extern C:\MCC18\v3_39\src\traditional\math\fxd0808u.c
                     loop   0x009f14    program     static                          
                  endloop   0x009f22    program     static                          
       ___return_lbl00000   0x009f26    program     static                          
              Delay10TCYx   0x009f28    program     extern C:\MCC18\v3_39\src\traditional\delays\d10tcyx.asm
                     D10x   0x009f30    program     static C:\MCC18\v3_39\src\traditional\delays\d10tcyx.asm
        _D10TCYXCODE_000A   0x009f32    program     static C:\MCC18\v3_39\src\traditional\delays\d10tcyx.asm
        _D10TCYXCODE_000C   0x009f34    program     static C:\MCC18\v3_39\src\traditional\delays\d10tcyx.asm
        _D10TCYXCODE_000E   0x009f36    program     static C:\MCC18\v3_39\src\traditional\delays\d10tcyx.asm
                    D10_1   0x009f38    program     static C:\MCC18\v3_39\src\traditional\delays\d10tcyx.asm
                  pow2x16   0x009f3e    program     extern C:\MCC18\v3_39\src\traditional\math\pow2x16.c
       ___return_lbl00000   0x009f52    program     static                          
               __config_0   0x300001    program     static /projet/faziasep/FEE/Step_4/conception/PIC/PIC_V4_OK/src/main.c
               __config_1   0x300002    program     static /projet/faziasep/FEE/Step_4/conception/PIC/PIC_V4_OK/src/main.c
               __config_2   0x300003    program     static /projet/faziasep/FEE/Step_4/conception/PIC/PIC_V4_OK/src/main.c
               __config_3   0x300005    program     static /projet/faziasep/FEE/Step_4/conception/PIC/PIC_V4_OK/src/main.c
               __config_4   0x300006    program     static /projet/faziasep/FEE/Step_4/conception/PIC/PIC_V4_OK/src/main.c
                     SIGN   0x000000       data     extern C:\MCC18\v3_39\src\traditional\math\cmath18.asm
            __FPFLAGSbits   0x000001       data     extern C:\MCC18\v3_39\src\traditional\math\cmath18.asm
                __FPFLAGS   0x000001       data     extern C:\MCC18\v3_39\src\traditional\math\cmath18.asm
                  __REMB3   0x000002       data     extern C:\MCC18\v3_39\src\traditional\math\aarg.asm
                 __AARGB7   0x000002       data     extern C:\MCC18\v3_39\src\traditional\math\aarg.asm
                 __AARGB6   0x000003       data     extern C:\MCC18\v3_39\src\traditional\math\aarg.asm
                  __REMB2   0x000003       data     extern C:\MCC18\v3_39\src\traditional\math\aarg.asm
                 __AARGB5   0x000004       data     extern C:\MCC18\v3_39\src\traditional\math\aarg.asm
                  __REMB1   0x000004       data     extern C:\MCC18\v3_39\src\traditional\math\aarg.asm
                 __AARGB4   0x000005       data     extern C:\MCC18\v3_39\src\traditional\math\aarg.asm
                  __REMB0   0x000005       data     extern C:\MCC18\v3_39\src\traditional\math\aarg.asm
                 __AARGB3   0x000006       data     extern C:\MCC18\v3_39\src\traditional\math\aarg.asm
                 __AARGB2   0x000007       data     extern C:\MCC18\v3_39\src\traditional\math\aarg.asm
                 __AARGB1   0x000008       data     extern C:\MCC18\v3_39\src\traditional\math\aarg.asm
                 __AARGB0   0x000009       data     extern C:\MCC18\v3_39\src\traditional\math\aarg.asm
                   __AEXP   0x00000a       data     extern C:\MCC18\v3_39\src\traditional\math\aarg.asm
                 __BARGB3   0x00000b       data     extern C:\MCC18\v3_39\src\traditional\math\barg.asm
                 __BARGB2   0x00000c       data     extern C:\MCC18\v3_39\src\traditional\math\barg.asm
                 __BARGB1   0x00000d       data     extern C:\MCC18\v3_39\src\traditional\math\barg.asm
                 __BARGB0   0x00000e       data     extern C:\MCC18\v3_39\src\traditional\math\barg.asm
                   __BEXP   0x00000f       data     extern C:\MCC18\v3_39\src\traditional\math\barg.asm
                 __TEMPB3   0x000010       data     extern C:\MCC18\v3_39\src\traditional\math\temparg.asm
                 __TEMPB2   0x000011       data     extern C:\MCC18\v3_39\src\traditional\math\temparg.asm
                 __TEMPB1   0x000012       data     extern C:\MCC18\v3_39\src\traditional\math\temparg.asm
                   __TEMP   0x000013       data     extern C:\MCC18\v3_39\src\traditional\math\temparg.asm
                 __TEMPB0   0x000013       data     extern C:\MCC18\v3_39\src\traditional\math\temparg.asm
                  __tmp_0   0x000014       data     static /projet/faziasep/FEE/Step_4/conception/PIC/PIC_V4_OK/src/myfunc/Tsensor.c
                  __tmp_0   0x000014       data     static /projet/faziasep/FEE/Step_4/conception/PIC/PIC_V4_OK/src/myfunc/spi.c
                  __tmp_0   0x000014       data     static /projet/faziasep/FEE/Step_4/conception/PIC/PIC_V4_OK/src/myfunc/display.c
                  __tmp_0   0x000014       data     static /projet/faziasep/FEE/Step_4/conception/PIC/PIC_V4_OK/src/myfunc/wr_eeprom.c
                  __tmp_0   0x000014       data     static /projet/faziasep/FEE/Step_4/conception/PIC/PIC_V4_OK/src/frame.c
                  __tmp_0   0x000014       data     static /projet/faziasep/FEE/Step_4/conception/PIC/PIC_V4_OK/src/uartbuf.c
                  __tmp_0   0x000014       data     static /projet/faziasep/FEE/Step_4/conception/PIC/PIC_V4_OK/src/cbuffer.c
                  __tmp_0   0x000014       data     static /projet/faziasep/FEE/Step_4/conception/PIC/PIC_V4_OK/src/setup.c
                  __tmp_0   0x000014       data     static /projet/faziasep/FEE/Step_4/conception/PIC/PIC_V4_OK/src/main.c
                  __tmp_0   0x000014       data     static /projet/faziasep/FEE/Step_4/conception/PIC/PIC_V4_OK/src/functions.c
                  __tmp_0   0x000014       data     static /projet/faziasep/FEE/Step_4/conception/PIC/PIC_V4_OK/src/utils.c
                  __tmp_0   0x000014       data     static C:\MCC18\v3_39\src\pmc_common\Timers\t1read.c
                  __tmp_0   0x000014       data     static /projet/faziasep/FEE/Step_4/conception/PIC/PIC_V4_OK/src/myfunc/analog.c
                  __tmp_0   0x000014       data     static /projet/faziasep/FEE/Step_4/conception/PIC/PIC_V4_OK/src/myfunc/ads8332.c
                  __tmp_0   0x000014       data     static /projet/faziasep/FEE/Step_4/conception/PIC/PIC_V4_OK/src/myfunc/dac8568.c
                  __tmp_0   0x000014       data     static /projet/faziasep/FEE/Step_4/conception/PIC/PIC_V4_OK/src/myfunc/maths.c
                  __tmp_1   0x000026       data     static /projet/faziasep/FEE/Step_4/conception/PIC/PIC_V4_OK/src/isr.c
            DelayCounter2   0x00002c       data     extern C:\MCC18\v3_39\src\traditional\delays\delayd2.asm
            DelayCounter1   0x00002d       data     extern C:\MCC18\v3_39\src\traditional\delays\delayd1.asm
                    canal   0x000060       data     static /projet/faziasep/FEE/Step_4/conception/PIC/PIC_V4_OK/src/main.c
                        i   0x000061       data     static /projet/faziasep/FEE/Step_4/conception/PIC/PIC_V4_OK/src/main.c
            borne_lim_inf   0x000062       data     static /projet/faziasep/FEE/Step_4/conception/PIC/PIC_V4_OK/src/main.c
            borne_lim_sup   0x000066       data     static /projet/faziasep/FEE/Step_4/conception/PIC/PIC_V4_OK/src/main.c
                    value   0x00006a       data     static /projet/faziasep/FEE/Step_4/conception/PIC/PIC_V4_OK/src/main.c
                     prom   0x00006c       data     static C:\MCC18\v3_39\src\traditional\startup\c018i.c
                curr_byte   0x00006f       data     static C:\MCC18\v3_39\src\traditional\startup\c018i.c
               curr_entry   0x000071       data     static C:\MCC18\v3_39\src\traditional\startup\c018i.c
                 data_ptr   0x000073       data     static C:\MCC18\v3_39\src\traditional\startup\c018i.c
             both_fpga_ok   0x000076       data     extern /projet/faziasep/FEE/Step_4/conception/PIC/PIC_V4_OK/src/main.c
                    check   0x000077       data     extern /projet/faziasep/FEE/Step_4/conception/PIC/PIC_V4_OK/src/main.c
                    state   0x000078       data     static /projet/faziasep/FEE/Step_4/conception/PIC/PIC_V4_OK/src/main.c
                   finish   0x000079       data     static /projet/faziasep/FEE/Step_4/conception/PIC/PIC_V4_OK/src/main.c
             USART_Status   0x00007d       data     extern C:\MCC18\v3_39\src\pmc_common\USART\udefs.c
                       ch   0x00007e       data     static /projet/faziasep/FEE/Step_4/conception/PIC/PIC_V4_OK/src/isr.c
                      fIn   0x000100       data     extern /projet/faziasep/FEE/Step_4/conception/PIC/PIC_V4_OK/src/main.c
                     fOut   0x000209       data     extern /projet/faziasep/FEE/Step_4/conception/PIC/PIC_V4_OK/src/main.c
                     data   0x000312       data     extern /projet/faziasep/FEE/Step_4/conception/PIC/PIC_V4_OK/src/main.c
                   result   0x000412       data     extern /projet/faziasep/FEE/Step_4/conception/PIC/PIC_V4_OK/src/main.c
                     fpre   0x000452       data     extern /projet/faziasep/FEE/Step_4/conception/PIC/PIC_V4_OK/src/main.c
                     done   0x00045c       data     extern /projet/faziasep/FEE/Step_4/conception/PIC/PIC_V4_OK/src/main.c
                    done2   0x00045d       data     extern /projet/faziasep/FEE/Step_4/conception/PIC/PIC_V4_OK/src/main.c
                    done3   0x00045e       data     extern /projet/faziasep/FEE/Step_4/conception/PIC/PIC_V4_OK/src/main.c
                    done4   0x00045f       data     extern /projet/faziasep/FEE/Step_4/conception/PIC/PIC_V4_OK/src/main.c
                 done_ins   0x000460       data     extern /projet/faziasep/FEE/Step_4/conception/PIC/PIC_V4_OK/src/main.c
                    done6   0x000461       data     extern /projet/faziasep/FEE/Step_4/conception/PIC/PIC_V4_OK/src/main.c
                    done7   0x000462       data     extern /projet/faziasep/FEE/Step_4/conception/PIC/PIC_V4_OK/src/main.c
              HvStatusOld   0x000463       data     extern /projet/faziasep/FEE/Step_4/conception/PIC/PIC_V4_OK/src/main.c
                   HVmeas   0x000467       data     extern /projet/faziasep/FEE/Step_4/conception/PIC/PIC_V4_OK/src/main.c
              lcAdcReadA1   0x000469       data     extern /projet/faziasep/FEE/Step_4/conception/PIC/PIC_V4_OK/src/main.c
              lcAdcReadA2   0x00046d       data     extern /projet/faziasep/FEE/Step_4/conception/PIC/PIC_V4_OK/src/main.c
              lcAdcReadB1   0x000471       data     extern /projet/faziasep/FEE/Step_4/conception/PIC/PIC_V4_OK/src/main.c
              lcAdcReadB2   0x000475       data     extern /projet/faziasep/FEE/Step_4/conception/PIC/PIC_V4_OK/src/main.c
               HVmeas_bin   0x000479       data     extern /projet/faziasep/FEE/Step_4/conception/PIC/PIC_V4_OK/src/main.c
        temperature_array   0x00047d       data     extern /projet/faziasep/FEE/Step_4/conception/PIC/PIC_V4_OK/src/main.c
                       co   0x000489       data     extern /projet/faziasep/FEE/Step_4/conception/PIC/PIC_V4_OK/src/main.c
            rd_data_fpga1   0x00048a       data     extern /projet/faziasep/FEE/Step_4/conception/PIC/PIC_V4_OK/src/main.c
            rd_data_fpga2   0x00048c       data     extern /projet/faziasep/FEE/Step_4/conception/PIC/PIC_V4_OK/src/main.c
           get_data_fpga1   0x00048e       data     extern /projet/faziasep/FEE/Step_4/conception/PIC/PIC_V4_OK/src/main.c
                     mmax   0x000490       data     extern /projet/faziasep/FEE/Step_4/conception/PIC/PIC_V4_OK/src/main.c
                        i   0x0004a4       data     extern /projet/faziasep/FEE/Step_4/conception/PIC/PIC_V4_OK/src/main.c
                       kw   0x0004a6       data     extern /projet/faziasep/FEE/Step_4/conception/PIC/PIC_V4_OK/src/main.c
                      idb   0x0004a7       data     extern /projet/faziasep/FEE/Step_4/conception/PIC/PIC_V4_OK/src/main.c
                      ids   0x0004a9       data     extern /projet/faziasep/FEE/Step_4/conception/PIC/PIC_V4_OK/src/main.c
                      cmd   0x0004aa       data     extern /projet/faziasep/FEE/Step_4/conception/PIC/PIC_V4_OK/src/main.c
                   cmdres   0x0004ab       data     extern /projet/faziasep/FEE/Step_4/conception/PIC/PIC_V4_OK/src/main.c
                  funcres   0x0004ac       data     extern /projet/faziasep/FEE/Step_4/conception/PIC/PIC_V4_OK/src/main.c
                      seq   0x0004ad       data     extern /projet/faziasep/FEE/Step_4/conception/PIC/PIC_V4_OK/src/main.c
                      crc   0x0004ae       data     extern /projet/faziasep/FEE/Step_4/conception/PIC/PIC_V4_OK/src/main.c
                    docrc   0x0004b0       data     extern /projet/faziasep/FEE/Step_4/conception/PIC/PIC_V4_OK/src/main.c
                     flen   0x0004b2       data     extern /projet/faziasep/FEE/Step_4/conception/PIC/PIC_V4_OK/src/main.c
                  foffset   0x0004b4       data     extern /projet/faziasep/FEE/Step_4/conception/PIC/PIC_V4_OK/src/main.c
                     ferr   0x0004b6       data     extern /projet/faziasep/FEE/Step_4/conception/PIC/PIC_V4_OK/src/main.c
                      myC   0x0004b8       data     extern /projet/faziasep/FEE/Step_4/conception/PIC/PIC_V4_OK/src/main.c
             valeur_portA   0x0004ba       data     extern /projet/faziasep/FEE/Step_4/conception/PIC/PIC_V4_OK/src/main.c
             valeur_trisA   0x0004bb       data     extern /projet/faziasep/FEE/Step_4/conception/PIC/PIC_V4_OK/src/main.c
             valeur_portB   0x0004bc       data     extern /projet/faziasep/FEE/Step_4/conception/PIC/PIC_V4_OK/src/main.c
             valeur_trisB   0x0004bd       data     extern /projet/faziasep/FEE/Step_4/conception/PIC/PIC_V4_OK/src/main.c
             valeur_portC   0x0004be       data     extern /projet/faziasep/FEE/Step_4/conception/PIC/PIC_V4_OK/src/main.c
             valeur_trisC   0x0004bf       data     extern /projet/faziasep/FEE/Step_4/conception/PIC/PIC_V4_OK/src/main.c
             valeur_portD   0x0004c0       data     extern /projet/faziasep/FEE/Step_4/conception/PIC/PIC_V4_OK/src/main.c
             valeur_trisD   0x0004c1       data     extern /projet/faziasep/FEE/Step_4/conception/PIC/PIC_V4_OK/src/main.c
             valeur_trisE   0x0004c2       data     extern /projet/faziasep/FEE/Step_4/conception/PIC/PIC_V4_OK/src/main.c
             enableHVMeas   0x0004c3       data     extern /projet/faziasep/FEE/Step_4/conception/PIC/PIC_V4_OK/src/main.c
               HvValueTab   0x0004c4       data     extern /projet/faziasep/FEE/Step_4/conception/PIC/PIC_V4_OK/src/main.c
                    HvInc   0x0004d4       data     extern /projet/faziasep/FEE/Step_4/conception/PIC/PIC_V4_OK/src/main.c
                 HvStatus   0x0004dc       data     extern /projet/faziasep/FEE/Step_4/conception/PIC/PIC_V4_OK/src/main.c
             HvPhysTarget   0x0004e0       data     extern /projet/faziasep/FEE/Step_4/conception/PIC/PIC_V4_OK/src/main.c
            HvPhysCorrect   0x0004e8       data     extern /projet/faziasep/FEE/Step_4/conception/PIC/PIC_V4_OK/src/main.c
      cal_preampli_offset   0x0004f0       data     extern /projet/faziasep/FEE/Step_4/conception/PIC/PIC_V4_OK/src/main.c
          marge_pa_offset   0x0004f1       data     extern /projet/faziasep/FEE/Step_4/conception/PIC/PIC_V4_OK/src/main.c
              default_DA1   0x0004f2       data     extern /projet/faziasep/FEE/Step_4/conception/PIC/PIC_V4_OK/src/main.c
              default_DA2   0x0004f3       data     extern /projet/faziasep/FEE/Step_4/conception/PIC/PIC_V4_OK/src/main.c
              default_DB1   0x0004f4       data     extern /projet/faziasep/FEE/Step_4/conception/PIC/PIC_V4_OK/src/main.c
              default_DB2   0x0004f5       data     extern /projet/faziasep/FEE/Step_4/conception/PIC/PIC_V4_OK/src/main.c
          HV_borne_sup_A1   0x0004f6       data     extern /projet/faziasep/FEE/Step_4/conception/PIC/PIC_V4_OK/src/main.c
          HV_borne_sup_A2   0x0004f8       data     extern /projet/faziasep/FEE/Step_4/conception/PIC/PIC_V4_OK/src/main.c
          HV_borne_sup_B1   0x0004fa       data     extern /projet/faziasep/FEE/Step_4/conception/PIC/PIC_V4_OK/src/main.c
          HV_borne_sup_B2   0x0004fc       data     extern /projet/faziasep/FEE/Step_4/conception/PIC/PIC_V4_OK/src/main.c
                 coefA_A1   0x0004fe       data     extern /projet/faziasep/FEE/Step_4/conception/PIC/PIC_V4_OK/src/main.c
                 coefA_A2   0x000502       data     extern /projet/faziasep/FEE/Step_4/conception/PIC/PIC_V4_OK/src/main.c
                 coefA_B1   0x000506       data     extern /projet/faziasep/FEE/Step_4/conception/PIC/PIC_V4_OK/src/main.c
                 coefA_B2   0x00050a       data     extern /projet/faziasep/FEE/Step_4/conception/PIC/PIC_V4_OK/src/main.c
                 coefB_A1   0x00050e       data     extern /projet/faziasep/FEE/Step_4/conception/PIC/PIC_V4_OK/src/main.c
                 coefB_A2   0x000512       data     extern /projet/faziasep/FEE/Step_4/conception/PIC/PIC_V4_OK/src/main.c
                 coefB_B1   0x000516       data     extern /projet/faziasep/FEE/Step_4/conception/PIC/PIC_V4_OK/src/main.c
                 coefB_B2   0x00051a       data     extern /projet/faziasep/FEE/Step_4/conception/PIC/PIC_V4_OK/src/main.c
            tsensor_1_min   0x00051e       data     extern /projet/faziasep/FEE/Step_4/conception/PIC/PIC_V4_OK/src/main.c
            tsensor_1_max   0x000520       data     extern /projet/faziasep/FEE/Step_4/conception/PIC/PIC_V4_OK/src/main.c
            tsensor_limit   0x000522       data     extern /projet/faziasep/FEE/Step_4/conception/PIC/PIC_V4_OK/src/main.c
               time_reset   0x000524       data     extern /projet/faziasep/FEE/Step_4/conception/PIC/PIC_V4_OK/src/main.c
               time_start   0x000525       data     extern /projet/faziasep/FEE/Step_4/conception/PIC/PIC_V4_OK/src/main.c
                time_bit0   0x000526       data     extern /projet/faziasep/FEE/Step_4/conception/PIC/PIC_V4_OK/src/main.c
                time_bit1   0x000527       data     extern /projet/faziasep/FEE/Step_4/conception/PIC/PIC_V4_OK/src/main.c
                time_wait   0x000528       data     extern /projet/faziasep/FEE/Step_4/conception/PIC/PIC_V4_OK/src/main.c
                CSI_relay   0x000529       data     extern /projet/faziasep/FEE/Step_4/conception/PIC/PIC_V4_OK/src/main.c
          time_scheduling   0x00052a       data     extern /projet/faziasep/FEE/Step_4/conception/PIC/PIC_V4_OK/src/main.c
     time_scheduling_copy   0x00052e       data     extern /projet/faziasep/FEE/Step_4/conception/PIC/PIC_V4_OK/src/main.c
            HV_read_coefA   0x000532       data     extern /projet/faziasep/FEE/Step_4/conception/PIC/PIC_V4_OK/src/main.c
            HV_read_coefB   0x000542       data     extern /projet/faziasep/FEE/Step_4/conception/PIC/PIC_V4_OK/src/main.c
                     lcA1   0x000552       data     extern /projet/faziasep/FEE/Step_4/conception/PIC/PIC_V4_OK/src/main.c
                     lcA2   0x000554       data     extern /projet/faziasep/FEE/Step_4/conception/PIC/PIC_V4_OK/src/main.c
                     lcB1   0x000556       data     extern /projet/faziasep/FEE/Step_4/conception/PIC/PIC_V4_OK/src/main.c
                     lcB2   0x000558       data     extern /projet/faziasep/FEE/Step_4/conception/PIC/PIC_V4_OK/src/main.c
        timing_inspection   0x00055a       data     extern /projet/faziasep/FEE/Step_4/conception/PIC/PIC_V4_OK/src/main.c
             time_lc_prec   0x00055e       data     extern /projet/faziasep/FEE/Step_4/conception/PIC/PIC_V4_OK/src/main.c
          shortInspecTime   0x000562       data     extern /projet/faziasep/FEE/Step_4/conception/PIC/PIC_V4_OK/src/main.c
           longInspecTime   0x000566       data     extern /projet/faziasep/FEE/Step_4/conception/PIC/PIC_V4_OK/src/main.c
           GeneDacVoltage   0x00056a       data     extern /projet/faziasep/FEE/Step_4/conception/PIC/PIC_V4_OK/src/main.c
                      max   0x00056c       data     extern /projet/faziasep/FEE/Step_4/conception/PIC/PIC_V4_OK/src/main.c
                       pa   0x00056e       data     extern /projet/faziasep/FEE/Step_4/conception/PIC/PIC_V4_OK/src/main.c
                    _Uart   0x00057a       data     extern /projet/faziasep/FEE/Step_4/conception/PIC/PIC_V4_OK/src/uartbuf.c
                   fplist   0x000f00       data     extern /projet/faziasep/FEE/Step_4/conception/PIC/PIC_V4_OK/src/functions.c
                    canal   0x000f48       data     static /projet/faziasep/FEE/Step_4/conception/PIC/PIC_V4_OK/src/functions.c
                    canal   0x000f49       data     static /projet/faziasep/FEE/Step_4/conception/PIC/PIC_V4_OK/src/functions.c
          leakage_current   0x000f4a       data     static /projet/faziasep/FEE/Step_4/conception/PIC/PIC_V4_OK/src/myfunc/ads8332.c
       leakage_current_na   0x000f4e       data     static /projet/faziasep/FEE/Step_4/conception/PIC/PIC_V4_OK/src/myfunc/ads8332.c
                      tns   0x000f52       data     static /projet/faziasep/FEE/Step_4/conception/PIC/PIC_V4_OK/src/myfunc/ads8332.c
                     data   0x000f56       data     static /projet/faziasep/FEE/Step_4/conception/PIC/PIC_V4_OK/src/myfunc/ads8332.c
                    value   0x000f58       data     static /projet/faziasep/FEE/Step_4/conception/PIC/PIC_V4_OK/src/myfunc/ads8332.c
                   value2   0x000f5a       data     static /projet/faziasep/FEE/Step_4/conception/PIC/PIC_V4_OK/src/myfunc/ads8332.c
                 sequence   0x000f5c       data     static /projet/faziasep/FEE/Step_4/conception/PIC/PIC_V4_OK/src/myfunc/ads8332.c
                     Uart   0x000f5e       data     extern /projet/faziasep/FEE/Step_4/conception/PIC/PIC_V4_OK/src/uartbuf.c
               SSPMSKbits   0x000f77       data     extern C:\MCC18\v3_39\src\traditional\proc\p18F46K20.asm
                   SSPMSK   0x000f77       data     extern C:\MCC18\v3_39\src\traditional\proc\p18F46K20.asm
                   SLRCON   0x000f78       data     extern C:\MCC18\v3_39\src\traditional\proc\p18F46K20.asm
               SLRCONbits   0x000f78       data     extern C:\MCC18\v3_39\src\traditional\proc\p18F46K20.asm
                  CM2CON1   0x000f79       data     extern C:\MCC18\v3_39\src\traditional\proc\p18F46K20.asm
              CM2CON1bits   0x000f79       data     extern C:\MCC18\v3_39\src\traditional\proc\p18F46K20.asm
              CM2CON0bits   0x000f7a       data     extern C:\MCC18\v3_39\src\traditional\proc\p18F46K20.asm
                  CM2CON0   0x000f7a       data     extern C:\MCC18\v3_39\src\traditional\proc\p18F46K20.asm
              CM1CON0bits   0x000f7b       data     extern C:\MCC18\v3_39\src\traditional\proc\p18F46K20.asm
                  CM1CON0   0x000f7b       data     extern C:\MCC18\v3_39\src\traditional\proc\p18F46K20.asm
                     WPUB   0x000f7c       data     extern C:\MCC18\v3_39\src\traditional\proc\p18F46K20.asm
                 WPUBbits   0x000f7c       data     extern C:\MCC18\v3_39\src\traditional\proc\p18F46K20.asm
                     IOCB   0x000f7d       data     extern C:\MCC18\v3_39\src\traditional\proc\p18F46K20.asm
                 IOCBbits   0x000f7d       data     extern C:\MCC18\v3_39\src\traditional\proc\p18F46K20.asm
                ANSELbits   0x000f7e       data     extern C:\MCC18\v3_39\src\traditional\proc\p18F46K20.asm
                    ANSEL   0x000f7e       data     extern C:\MCC18\v3_39\src\traditional\proc\p18F46K20.asm
                   ANSELH   0x000f7f       data     extern C:\MCC18\v3_39\src\traditional\proc\p18F46K20.asm
               ANSELHbits   0x000f7f       data     extern C:\MCC18\v3_39\src\traditional\proc\p18F46K20.asm
                    PORTA   0x000f80       data     extern C:\MCC18\v3_39\src\traditional\proc\p18F46K20.asm
                PORTAbits   0x000f80       data     extern C:\MCC18\v3_39\src\traditional\proc\p18F46K20.asm
                    PORTB   0x000f81       data     extern C:\MCC18\v3_39\src\traditional\proc\p18F46K20.asm
                PORTBbits   0x000f81       data     extern C:\MCC18\v3_39\src\traditional\proc\p18F46K20.asm
                    PORTC   0x000f82       data     extern C:\MCC18\v3_39\src\traditional\proc\p18F46K20.asm
                PORTCbits   0x000f82       data     extern C:\MCC18\v3_39\src\traditional\proc\p18F46K20.asm
                    PORTD   0x000f83       data     extern C:\MCC18\v3_39\src\traditional\proc\p18F46K20.asm
                PORTDbits   0x000f83       data     extern C:\MCC18\v3_39\src\traditional\proc\p18F46K20.asm
                PORTEbits   0x000f84       data     extern C:\MCC18\v3_39\src\traditional\proc\p18F46K20.asm
                    PORTE   0x000f84       data     extern C:\MCC18\v3_39\src\traditional\proc\p18F46K20.asm
                 LATAbits   0x000f89       data     extern C:\MCC18\v3_39\src\traditional\proc\p18F46K20.asm
                     LATA   0x000f89       data     extern C:\MCC18\v3_39\src\traditional\proc\p18F46K20.asm
                 LATBbits   0x000f8a       data     extern C:\MCC18\v3_39\src\traditional\proc\p18F46K20.asm
                     LATB   0x000f8a       data     extern C:\MCC18\v3_39\src\traditional\proc\p18F46K20.asm
                 LATCbits   0x000f8b       data     extern C:\MCC18\v3_39\src\traditional\proc\p18F46K20.asm
                     LATC   0x000f8b       data     extern C:\MCC18\v3_39\src\traditional\proc\p18F46K20.asm
                 LATDbits   0x000f8c       data     extern C:\MCC18\v3_39\src\traditional\proc\p18F46K20.asm
                     LATD   0x000f8c       data     extern C:\MCC18\v3_39\src\traditional\proc\p18F46K20.asm
                     LATE   0x000f8d       data     extern C:\MCC18\v3_39\src\traditional\proc\p18F46K20.asm
                 LATEbits   0x000f8d       data     extern C:\MCC18\v3_39\src\traditional\proc\p18F46K20.asm
                TRISAbits   0x000f92       data     extern C:\MCC18\v3_39\src\traditional\proc\p18F46K20.asm
                     DDRA   0x000f92       data     extern C:\MCC18\v3_39\src\traditional\proc\p18F46K20.asm
                 DDRAbits   0x000f92       data     extern C:\MCC18\v3_39\src\traditional\proc\p18F46K20.asm
                    TRISA   0x000f92       data     extern C:\MCC18\v3_39\src\traditional\proc\p18F46K20.asm
                     DDRB   0x000f93       data     extern C:\MCC18\v3_39\src\traditional\proc\p18F46K20.asm
                 DDRBbits   0x000f93       data     extern C:\MCC18\v3_39\src\traditional\proc\p18F46K20.asm
                TRISBbits   0x000f93       data     extern C:\MCC18\v3_39\src\traditional\proc\p18F46K20.asm
                    TRISB   0x000f93       data     extern C:\MCC18\v3_39\src\traditional\proc\p18F46K20.asm
                    TRISC   0x000f94       data     extern C:\MCC18\v3_39\src\traditional\proc\p18F46K20.asm
                TRISCbits   0x000f94       data     extern C:\MCC18\v3_39\src\traditional\proc\p18F46K20.asm
                 DDRCbits   0x000f94       data     extern C:\MCC18\v3_39\src\traditional\proc\p18F46K20.asm
                     DDRC   0x000f94       data     extern C:\MCC18\v3_39\src\traditional\proc\p18F46K20.asm
                    TRISD   0x000f95       data     extern C:\MCC18\v3_39\src\traditional\proc\p18F46K20.asm
                TRISDbits   0x000f95       data     extern C:\MCC18\v3_39\src\traditional\proc\p18F46K20.asm
                 DDRDbits   0x000f95       data     extern C:\MCC18\v3_39\src\traditional\proc\p18F46K20.asm
                     DDRD   0x000f95       data     extern C:\MCC18\v3_39\src\traditional\proc\p18F46K20.asm
                 DDREbits   0x000f96       data     extern C:\MCC18\v3_39\src\traditional\proc\p18F46K20.asm
                     DDRE   0x000f96       data     extern C:\MCC18\v3_39\src\traditional\proc\p18F46K20.asm
                TRISEbits   0x000f96       data     extern C:\MCC18\v3_39\src\traditional\proc\p18F46K20.asm
                    TRISE   0x000f96       data     extern C:\MCC18\v3_39\src\traditional\proc\p18F46K20.asm
              OSCTUNEbits   0x000f9b       data     extern C:\MCC18\v3_39\src\traditional\proc\p18F46K20.asm
                  OSCTUNE   0x000f9b       data     extern C:\MCC18\v3_39\src\traditional\proc\p18F46K20.asm
                 PIE1bits   0x000f9d       data     extern C:\MCC18\v3_39\src\traditional\proc\p18F46K20.asm
                     PIE1   0x000f9d       data     extern C:\MCC18\v3_39\src\traditional\proc\p18F46K20.asm
                     PIR1   0x000f9e       data     extern C:\MCC18\v3_39\src\traditional\proc\p18F46K20.asm
                 PIR1bits   0x000f9e       data     extern C:\MCC18\v3_39\src\traditional\proc\p18F46K20.asm
                     IPR1   0x000f9f       data     extern C:\MCC18\v3_39\src\traditional\proc\p18F46K20.asm
                 IPR1bits   0x000f9f       data     extern C:\MCC18\v3_39\src\traditional\proc\p18F46K20.asm
                     PIE2   0x000fa0       data     extern C:\MCC18\v3_39\src\traditional\proc\p18F46K20.asm
                 PIE2bits   0x000fa0       data     extern C:\MCC18\v3_39\src\traditional\proc\p18F46K20.asm
                 PIR2bits   0x000fa1       data     extern C:\MCC18\v3_39\src\traditional\proc\p18F46K20.asm
                     PIR2   0x000fa1       data     extern C:\MCC18\v3_39\src\traditional\proc\p18F46K20.asm
                     IPR2   0x000fa2       data     extern C:\MCC18\v3_39\src\traditional\proc\p18F46K20.asm
                 IPR2bits   0x000fa2       data     extern C:\MCC18\v3_39\src\traditional\proc\p18F46K20.asm
                   EECON1   0x000fa6       data     extern C:\MCC18\v3_39\src\traditional\proc\p18F46K20.asm
               EECON1bits   0x000fa6       data     extern C:\MCC18\v3_39\src\traditional\proc\p18F46K20.asm
                   EECON2   0x000fa7       data     extern C:\MCC18\v3_39\src\traditional\proc\p18F46K20.asm
                   EEDATA   0x000fa8       data     extern C:\MCC18\v3_39\src\traditional\proc\p18F46K20.asm
                    EEADR   0x000fa9       data     extern C:\MCC18\v3_39\src\traditional\proc\p18F46K20.asm
                EEADRbits   0x000fa9       data     extern C:\MCC18\v3_39\src\traditional\proc\p18F46K20.asm
                   EEADRH   0x000faa       data     extern C:\MCC18\v3_39\src\traditional\proc\p18F46K20.asm
               EEADRHbits   0x000faa       data     extern C:\MCC18\v3_39\src\traditional\proc\p18F46K20.asm
                RCSTAbits   0x000fab       data     extern C:\MCC18\v3_39\src\traditional\proc\p18F46K20.asm
                    RCSTA   0x000fab       data     extern C:\MCC18\v3_39\src\traditional\proc\p18F46K20.asm
                    TXSTA   0x000fac       data     extern C:\MCC18\v3_39\src\traditional\proc\p18F46K20.asm
                TXSTAbits   0x000fac       data     extern C:\MCC18\v3_39\src\traditional\proc\p18F46K20.asm
                    TXREG   0x000fad       data     extern C:\MCC18\v3_39\src\traditional\proc\p18F46K20.asm
                    RCREG   0x000fae       data     extern C:\MCC18\v3_39\src\traditional\proc\p18F46K20.asm
                    SPBRG   0x000faf       data     extern C:\MCC18\v3_39\src\traditional\proc\p18F46K20.asm
                   SPBRGH   0x000fb0       data     extern C:\MCC18\v3_39\src\traditional\proc\p18F46K20.asm
                T3CONbits   0x000fb1       data     extern C:\MCC18\v3_39\src\traditional\proc\p18F46K20.asm
                    T3CON   0x000fb1       data     extern C:\MCC18\v3_39\src\traditional\proc\p18F46K20.asm
                    TMR3L   0x000fb2       data     extern C:\MCC18\v3_39\src\traditional\proc\p18F46K20.asm
                    TMR3H   0x000fb3       data     extern C:\MCC18\v3_39\src\traditional\proc\p18F46K20.asm
                  CVRCON2   0x000fb4       data     extern C:\MCC18\v3_39\src\traditional\proc\p18F46K20.asm
              CVRCON2bits   0x000fb4       data     extern C:\MCC18\v3_39\src\traditional\proc\p18F46K20.asm
                   CVRCON   0x000fb5       data     extern C:\MCC18\v3_39\src\traditional\proc\p18F46K20.asm
               CVRCONbits   0x000fb5       data     extern C:\MCC18\v3_39\src\traditional\proc\p18F46K20.asm
              ECCP1ASbits   0x000fb6       data     extern C:\MCC18\v3_39\src\traditional\proc\p18F46K20.asm
                  ECCP1AS   0x000fb6       data     extern C:\MCC18\v3_39\src\traditional\proc\p18F46K20.asm
              PWM1CONbits   0x000fb7       data     extern C:\MCC18\v3_39\src\traditional\proc\p18F46K20.asm
                  PWM1CON   0x000fb7       data     extern C:\MCC18\v3_39\src\traditional\proc\p18F46K20.asm
              BAUDCTLbits   0x000fb8       data     extern C:\MCC18\v3_39\src\traditional\proc\p18F46K20.asm
                  BAUDCTL   0x000fb8       data     extern C:\MCC18\v3_39\src\traditional\proc\p18F46K20.asm
              BAUDCONbits   0x000fb8       data     extern C:\MCC18\v3_39\src\traditional\proc\p18F46K20.asm
                  BAUDCON   0x000fb8       data     extern C:\MCC18\v3_39\src\traditional\proc\p18F46K20.asm
              PSTRCONbits   0x000fb9       data     extern C:\MCC18\v3_39\src\traditional\proc\p18F46K20.asm
                  PSTRCON   0x000fb9       data     extern C:\MCC18\v3_39\src\traditional\proc\p18F46K20.asm
              CCP2CONbits   0x000fba       data     extern C:\MCC18\v3_39\src\traditional\proc\p18F46K20.asm
                  CCP2CON   0x000fba       data     extern C:\MCC18\v3_39\src\traditional\proc\p18F46K20.asm
                   CCPR2L   0x000fbb       data     extern C:\MCC18\v3_39\src\traditional\proc\p18F46K20.asm
                    CCPR2   0x000fbb       data     extern C:\MCC18\v3_39\src\traditional\proc\p18F46K20.asm
                   CCPR2H   0x000fbc       data     extern C:\MCC18\v3_39\src\traditional\proc\p18F46K20.asm
                  CCP1CON   0x000fbd       data     extern C:\MCC18\v3_39\src\traditional\proc\p18F46K20.asm
              CCP1CONbits   0x000fbd       data     extern C:\MCC18\v3_39\src\traditional\proc\p18F46K20.asm
                   CCPR1L   0x000fbe       data     extern C:\MCC18\v3_39\src\traditional\proc\p18F46K20.asm
                    CCPR1   0x000fbe       data     extern C:\MCC18\v3_39\src\traditional\proc\p18F46K20.asm
                   CCPR1H   0x000fbf       data     extern C:\MCC18\v3_39\src\traditional\proc\p18F46K20.asm
               ADCON2bits   0x000fc0       data     extern C:\MCC18\v3_39\src\traditional\proc\p18F46K20.asm
                   ADCON2   0x000fc0       data     extern C:\MCC18\v3_39\src\traditional\proc\p18F46K20.asm
               ADCON1bits   0x000fc1       data     extern C:\MCC18\v3_39\src\traditional\proc\p18F46K20.asm
                   ADCON1   0x000fc1       data     extern C:\MCC18\v3_39\src\traditional\proc\p18F46K20.asm
                   ADCON0   0x000fc2       data     extern C:\MCC18\v3_39\src\traditional\proc\p18F46K20.asm
               ADCON0bits   0x000fc2       data     extern C:\MCC18\v3_39\src\traditional\proc\p18F46K20.asm
                    ADRES   0x000fc3       data     extern C:\MCC18\v3_39\src\traditional\proc\p18F46K20.asm
                   ADRESL   0x000fc3       data     extern C:\MCC18\v3_39\src\traditional\proc\p18F46K20.asm
                   ADRESH   0x000fc4       data     extern C:\MCC18\v3_39\src\traditional\proc\p18F46K20.asm
                  SSPCON2   0x000fc5       data     extern C:\MCC18\v3_39\src\traditional\proc\p18F46K20.asm
              SSPCON2bits   0x000fc5       data     extern C:\MCC18\v3_39\src\traditional\proc\p18F46K20.asm
                  SSPCON1   0x000fc6       data     extern C:\MCC18\v3_39\src\traditional\proc\p18F46K20.asm
              SSPCON1bits   0x000fc6       data     extern C:\MCC18\v3_39\src\traditional\proc\p18F46K20.asm
                  SSPSTAT   0x000fc7       data     extern C:\MCC18\v3_39\src\traditional\proc\p18F46K20.asm
              SSPSTATbits   0x000fc7       data     extern C:\MCC18\v3_39\src\traditional\proc\p18F46K20.asm
                   SSPADD   0x000fc8       data     extern C:\MCC18\v3_39\src\traditional\proc\p18F46K20.asm
                   SSPBUF   0x000fc9       data     extern C:\MCC18\v3_39\src\traditional\proc\p18F46K20.asm
                    T2CON   0x000fca       data     extern C:\MCC18\v3_39\src\traditional\proc\p18F46K20.asm
                T2CONbits   0x000fca       data     extern C:\MCC18\v3_39\src\traditional\proc\p18F46K20.asm
                      PR2   0x000fcb       data     extern C:\MCC18\v3_39\src\traditional\proc\p18F46K20.asm
                     TMR2   0x000fcc       data     extern C:\MCC18\v3_39\src\traditional\proc\p18F46K20.asm
                T1CONbits   0x000fcd       data     extern C:\MCC18\v3_39\src\traditional\proc\p18F46K20.asm
                    T1CON   0x000fcd       data     extern C:\MCC18\v3_39\src\traditional\proc\p18F46K20.asm
                    TMR1L   0x000fce       data     extern C:\MCC18\v3_39\src\traditional\proc\p18F46K20.asm
                    TMR1H   0x000fcf       data     extern C:\MCC18\v3_39\src\traditional\proc\p18F46K20.asm
                     RCON   0x000fd0       data     extern C:\MCC18\v3_39\src\traditional\proc\p18F46K20.asm
                 RCONbits   0x000fd0       data     extern C:\MCC18\v3_39\src\traditional\proc\p18F46K20.asm
               WDTCONbits   0x000fd1       data     extern C:\MCC18\v3_39\src\traditional\proc\p18F46K20.asm
                   WDTCON   0x000fd1       data     extern C:\MCC18\v3_39\src\traditional\proc\p18F46K20.asm
               LVDCONbits   0x000fd2       data     extern C:\MCC18\v3_39\src\traditional\proc\p18F46K20.asm
                   LVDCON   0x000fd2       data     extern C:\MCC18\v3_39\src\traditional\proc\p18F46K20.asm
              HLVDCONbits   0x000fd2       data     extern C:\MCC18\v3_39\src\traditional\proc\p18F46K20.asm
                  HLVDCON   0x000fd2       data     extern C:\MCC18\v3_39\src\traditional\proc\p18F46K20.asm
               OSCCONbits   0x000fd3       data     extern C:\MCC18\v3_39\src\traditional\proc\p18F46K20.asm
                   OSCCON   0x000fd3       data     extern C:\MCC18\v3_39\src\traditional\proc\p18F46K20.asm
                T0CONbits   0x000fd5       data     extern C:\MCC18\v3_39\src\traditional\proc\p18F46K20.asm
                    T0CON   0x000fd5       data     extern C:\MCC18\v3_39\src\traditional\proc\p18F46K20.asm
                    TMR0L   0x000fd6       data     extern C:\MCC18\v3_39\src\traditional\proc\p18F46K20.asm
                    TMR0H   0x000fd7       data     extern C:\MCC18\v3_39\src\traditional\proc\p18F46K20.asm
                   STATUS   0x000fd8       data     extern C:\MCC18\v3_39\src\traditional\proc\p18F46K20.asm
               STATUSbits   0x000fd8       data     extern C:\MCC18\v3_39\src\traditional\proc\p18F46K20.asm
                     FSR2   0x000fd9       data     extern C:\MCC18\v3_39\src\traditional\proc\p18F46K20.asm
                    FSR2L   0x000fd9       data     extern C:\MCC18\v3_39\src\traditional\proc\p18F46K20.asm
                    FSR2H   0x000fda       data     extern C:\MCC18\v3_39\src\traditional\proc\p18F46K20.asm
                   PLUSW2   0x000fdb       data     extern C:\MCC18\v3_39\src\traditional\proc\p18F46K20.asm
                  PREINC2   0x000fdc       data     extern C:\MCC18\v3_39\src\traditional\proc\p18F46K20.asm
                 POSTDEC2   0x000fdd       data     extern C:\MCC18\v3_39\src\traditional\proc\p18F46K20.asm
                 POSTINC2   0x000fde       data     extern C:\MCC18\v3_39\src\traditional\proc\p18F46K20.asm
                    INDF2   0x000fdf       data     extern C:\MCC18\v3_39\src\traditional\proc\p18F46K20.asm
                      BSR   0x000fe0       data     extern C:\MCC18\v3_39\src\traditional\proc\p18F46K20.asm
                     FSR1   0x000fe1       data     extern C:\MCC18\v3_39\src\traditional\proc\p18F46K20.asm
                    FSR1L   0x000fe1       data     extern C:\MCC18\v3_39\src\traditional\proc\p18F46K20.asm
                    FSR1H   0x000fe2       data     extern C:\MCC18\v3_39\src\traditional\proc\p18F46K20.asm
                   PLUSW1   0x000fe3       data     extern C:\MCC18\v3_39\src\traditional\proc\p18F46K20.asm
                  PREINC1   0x000fe4       data     extern C:\MCC18\v3_39\src\traditional\proc\p18F46K20.asm
                 POSTDEC1   0x000fe5       data     extern C:\MCC18\v3_39\src\traditional\proc\p18F46K20.asm
                 POSTINC1   0x000fe6       data     extern C:\MCC18\v3_39\src\traditional\proc\p18F46K20.asm
                    INDF1   0x000fe7       data     extern C:\MCC18\v3_39\src\traditional\proc\p18F46K20.asm
                        W   0x000fe8       data     extern C:\MCC18\v3_39\src\traditional\proc\p18F46K20.asm
                     WREG   0x000fe8       data     extern C:\MCC18\v3_39\src\traditional\proc\p18F46K20.asm
                    FSR0L   0x000fe9       data     extern C:\MCC18\v3_39\src\traditional\proc\p18F46K20.asm
                     FSR0   0x000fe9       data     extern C:\MCC18\v3_39\src\traditional\proc\p18F46K20.asm
                    FSR0H   0x000fea       data     extern C:\MCC18\v3_39\src\traditional\proc\p18F46K20.asm
                   PLUSW0   0x000feb       data     extern C:\MCC18\v3_39\src\traditional\proc\p18F46K20.asm
                  PREINC0   0x000fec       data     extern C:\MCC18\v3_39\src\traditional\proc\p18F46K20.asm
                 POSTDEC0   0x000fed       data     extern C:\MCC18\v3_39\src\traditional\proc\p18F46K20.asm
                 POSTINC0   0x000fee       data     extern C:\MCC18\v3_39\src\traditional\proc\p18F46K20.asm
                    INDF0   0x000fef       data     extern C:\MCC18\v3_39\src\traditional\proc\p18F46K20.asm
              INTCON3bits   0x000ff0       data     extern C:\MCC18\v3_39\src\traditional\proc\p18F46K20.asm
                  INTCON3   0x000ff0       data     extern C:\MCC18\v3_39\src\traditional\proc\p18F46K20.asm
                  INTCON2   0x000ff1       data     extern C:\MCC18\v3_39\src\traditional\proc\p18F46K20.asm
              INTCON2bits   0x000ff1       data     extern C:\MCC18\v3_39\src\traditional\proc\p18F46K20.asm
                   INTCON   0x000ff2       data     extern C:\MCC18\v3_39\src\traditional\proc\p18F46K20.asm
               INTCONbits   0x000ff2       data     extern C:\MCC18\v3_39\src\traditional\proc\p18F46K20.asm
                     PROD   0x000ff3       data     extern C:\MCC18\v3_39\src\traditional\proc\p18F46K20.asm
                    PRODL   0x000ff3       data     extern C:\MCC18\v3_39\src\traditional\proc\p18F46K20.asm
                    PRODH   0x000ff4       data     extern C:\MCC18\v3_39\src\traditional\proc\p18F46K20.asm
                   TABLAT   0x000ff5       data     extern C:\MCC18\v3_39\src\traditional\proc\p18F46K20.asm
                  TBLPTRL   0x000ff6       data     extern C:\MCC18\v3_39\src\traditional\proc\p18F46K20.asm
                   TBLPTR   0x000ff6       data     extern C:\MCC18\v3_39\src\traditional\proc\p18F46K20.asm
                  TBLPTRH   0x000ff7       data     extern C:\MCC18\v3_39\src\traditional\proc\p18F46K20.asm
                  TBLPTRU   0x000ff8       data     extern C:\MCC18\v3_39\src\traditional\proc\p18F46K20.asm
                       PC   0x000ff9       data     extern C:\MCC18\v3_39\src\traditional\proc\p18F46K20.asm
                      PCL   0x000ff9       data     extern C:\MCC18\v3_39\src\traditional\proc\p18F46K20.asm
                   PCLATH   0x000ffa       data     extern C:\MCC18\v3_39\src\traditional\proc\p18F46K20.asm
                   PCLATU   0x000ffb       data     extern C:\MCC18\v3_39\src\traditional\proc\p18F46K20.asm
                   STKPTR   0x000ffc       data     extern C:\MCC18\v3_39\src\traditional\proc\p18F46K20.asm
               STKPTRbits   0x000ffc       data     extern C:\MCC18\v3_39\src\traditional\proc\p18F46K20.asm
                      TOS   0x000ffd       data     extern C:\MCC18\v3_39\src\traditional\proc\p18F46K20.asm
                     TOSL   0x000ffd       data     extern C:\MCC18\v3_39\src\traditional\proc\p18F46K20.asm
                     TOSH   0x000ffe       data     extern C:\MCC18\v3_39\src\traditional\proc\p18F46K20.asm
                     TOSU   0x000fff       data     extern C:\MCC18\v3_39\src\traditional\proc\p18F46K20.asm


